Archive member included to satisfy reference by file (symbol)

/usr/lib/gcc/arm-none-eabi/12.2.1/../../../arm-none-eabi/lib/thumb/v8-m.main/nofp/libc_nano.a(lib_a-assert.o)
                              ./rzg/linaro/open-amp/lib/remoteproc/elf_loader.o (__assert_func)
/usr/lib/gcc/arm-none-eabi/12.2.1/../../../arm-none-eabi/lib/thumb/v8-m.main/nofp/libc_nano.a(lib_a-errno.o)
                              ./rzg/fsp/src/bsp/mcu/all/bsp_sbrk.o (__errno)
/usr/lib/gcc/arm-none-eabi/12.2.1/../../../arm-none-eabi/lib/thumb/v8-m.main/nofp/libc_nano.a(lib_a-fprintf.o)
                              /usr/lib/gcc/arm-none-eabi/12.2.1/../../../arm-none-eabi/lib/thumb/v8-m.main/nofp/libc_nano.a(lib_a-assert.o) (fiprintf)
/usr/lib/gcc/arm-none-eabi/12.2.1/../../../arm-none-eabi/lib/thumb/v8-m.main/nofp/libc_nano.a(lib_a-impure.o)
                              /usr/lib/gcc/arm-none-eabi/12.2.1/../../../arm-none-eabi/lib/thumb/v8-m.main/nofp/libc_nano.a(lib_a-assert.o) (_impure_ptr)
/usr/lib/gcc/arm-none-eabi/12.2.1/../../../arm-none-eabi/lib/thumb/v8-m.main/nofp/libc_nano.a(lib_a-memcpy.o)
                              ./src/rsc_table.o (memcpy)
/usr/lib/gcc/arm-none-eabi/12.2.1/../../../arm-none-eabi/lib/thumb/v8-m.main/nofp/libc_nano.a(lib_a-memset.o)
                              ./src/platform_info.o (memset)
/usr/lib/gcc/arm-none-eabi/12.2.1/../../../arm-none-eabi/lib/thumb/v8-m.main/nofp/libc_nano.a(lib_a-nano-vfprintf.o)
                              /usr/lib/gcc/arm-none-eabi/12.2.1/../../../arm-none-eabi/lib/thumb/v8-m.main/nofp/libc_nano.a(lib_a-fprintf.o) (_vfprintf_r)
/usr/lib/gcc/arm-none-eabi/12.2.1/../../../arm-none-eabi/lib/thumb/v8-m.main/nofp/libc_nano.a(lib_a-nano-vfprintf_i.o)
                              /usr/lib/gcc/arm-none-eabi/12.2.1/../../../arm-none-eabi/lib/thumb/v8-m.main/nofp/libc_nano.a(lib_a-nano-vfprintf.o) (_printf_i)
/usr/lib/gcc/arm-none-eabi/12.2.1/../../../arm-none-eabi/lib/thumb/v8-m.main/nofp/libc_nano.a(lib_a-strcmp.o)
                              ./rzg/linaro/open-amp/lib/remoteproc/elf_loader.o (strcmp)
/usr/lib/gcc/arm-none-eabi/12.2.1/../../../arm-none-eabi/lib/thumb/v8-m.main/nofp/libc_nano.a(lib_a-strncmp.o)
                              ./rzg/linaro/open-amp/lib/rpmsg/rpmsg.o (strncmp)
/usr/lib/gcc/arm-none-eabi/12.2.1/../../../arm-none-eabi/lib/thumb/v8-m.main/nofp/libc_nano.a(lib_a-strncpy.o)
                              ./src/rzg2_rproc.o (strncpy)
/usr/lib/gcc/arm-none-eabi/12.2.1/../../../arm-none-eabi/lib/thumb/v8-m.main/nofp/libc_nano.a(lib_a-wbuf.o)
                              /usr/lib/gcc/arm-none-eabi/12.2.1/../../../arm-none-eabi/lib/thumb/v8-m.main/nofp/libc_nano.a(lib_a-nano-vfprintf.o) (__swbuf_r)
/usr/lib/gcc/arm-none-eabi/12.2.1/../../../arm-none-eabi/lib/thumb/v8-m.main/nofp/libc_nano.a(lib_a-wsetup.o)
                              /usr/lib/gcc/arm-none-eabi/12.2.1/../../../arm-none-eabi/lib/thumb/v8-m.main/nofp/libc_nano.a(lib_a-nano-vfprintf.o) (__swsetup_r)
/usr/lib/gcc/arm-none-eabi/12.2.1/../../../arm-none-eabi/lib/thumb/v8-m.main/nofp/libc_nano.a(lib_a-abort.o)
                              /usr/lib/gcc/arm-none-eabi/12.2.1/../../../arm-none-eabi/lib/thumb/v8-m.main/nofp/libc_nano.a(lib_a-assert.o) (abort)
/usr/lib/gcc/arm-none-eabi/12.2.1/../../../arm-none-eabi/lib/thumb/v8-m.main/nofp/libc_nano.a(lib_a-fflush.o)
                              /usr/lib/gcc/arm-none-eabi/12.2.1/../../../arm-none-eabi/lib/thumb/v8-m.main/nofp/libc_nano.a(lib_a-wbuf.o) (_fflush_r)
/usr/lib/gcc/arm-none-eabi/12.2.1/../../../arm-none-eabi/lib/thumb/v8-m.main/nofp/libc_nano.a(lib_a-findfp.o)
                              /usr/lib/gcc/arm-none-eabi/12.2.1/../../../arm-none-eabi/lib/thumb/v8-m.main/nofp/libc_nano.a(lib_a-nano-vfprintf.o) (__sinit)
/usr/lib/gcc/arm-none-eabi/12.2.1/../../../arm-none-eabi/lib/thumb/v8-m.main/nofp/libc_nano.a(lib_a-fvwrite.o)
                              /usr/lib/gcc/arm-none-eabi/12.2.1/../../../arm-none-eabi/lib/thumb/v8-m.main/nofp/libc_nano.a(lib_a-nano-vfprintf.o) (__sfvwrite_r)
/usr/lib/gcc/arm-none-eabi/12.2.1/../../../arm-none-eabi/lib/thumb/v8-m.main/nofp/libc_nano.a(lib_a-fwalk.o)
                              /usr/lib/gcc/arm-none-eabi/12.2.1/../../../arm-none-eabi/lib/thumb/v8-m.main/nofp/libc_nano.a(lib_a-findfp.o) (_fwalk)
/usr/lib/gcc/arm-none-eabi/12.2.1/../../../arm-none-eabi/lib/thumb/v8-m.main/nofp/libc_nano.a(lib_a-makebuf.o)
                              /usr/lib/gcc/arm-none-eabi/12.2.1/../../../arm-none-eabi/lib/thumb/v8-m.main/nofp/libc_nano.a(lib_a-wsetup.o) (__smakebuf_r)
/usr/lib/gcc/arm-none-eabi/12.2.1/../../../arm-none-eabi/lib/thumb/v8-m.main/nofp/libc_nano.a(lib_a-memchr-stub.o)
                              /usr/lib/gcc/arm-none-eabi/12.2.1/../../../arm-none-eabi/lib/thumb/v8-m.main/nofp/libc_nano.a(lib_a-nano-vfprintf.o) (memchr)
/usr/lib/gcc/arm-none-eabi/12.2.1/../../../arm-none-eabi/lib/thumb/v8-m.main/nofp/libc_nano.a(lib_a-memmove.o)
                              /usr/lib/gcc/arm-none-eabi/12.2.1/../../../arm-none-eabi/lib/thumb/v8-m.main/nofp/libc_nano.a(lib_a-fvwrite.o) (memmove)
/usr/lib/gcc/arm-none-eabi/12.2.1/../../../arm-none-eabi/lib/thumb/v8-m.main/nofp/libc_nano.a(lib_a-nano-freer.o)
                              /usr/lib/gcc/arm-none-eabi/12.2.1/../../../arm-none-eabi/lib/thumb/v8-m.main/nofp/libc_nano.a(lib_a-wsetup.o) (_free_r)
/usr/lib/gcc/arm-none-eabi/12.2.1/../../../arm-none-eabi/lib/thumb/v8-m.main/nofp/libc_nano.a(lib_a-nano-mallocr.o)
                              /usr/lib/gcc/arm-none-eabi/12.2.1/../../../arm-none-eabi/lib/thumb/v8-m.main/nofp/libc_nano.a(lib_a-findfp.o) (_malloc_r)
/usr/lib/gcc/arm-none-eabi/12.2.1/../../../arm-none-eabi/lib/thumb/v8-m.main/nofp/libc_nano.a(lib_a-nano-reallocr.o)
                              /usr/lib/gcc/arm-none-eabi/12.2.1/../../../arm-none-eabi/lib/thumb/v8-m.main/nofp/libc_nano.a(lib_a-fvwrite.o) (_realloc_r)
/usr/lib/gcc/arm-none-eabi/12.2.1/../../../arm-none-eabi/lib/thumb/v8-m.main/nofp/libc_nano.a(lib_a-sbrkr.o)
                              /usr/lib/gcc/arm-none-eabi/12.2.1/../../../arm-none-eabi/lib/thumb/v8-m.main/nofp/libc_nano.a(lib_a-nano-mallocr.o) (_sbrk_r)
/usr/lib/gcc/arm-none-eabi/12.2.1/../../../arm-none-eabi/lib/thumb/v8-m.main/nofp/libc_nano.a(lib_a-signal.o)
                              /usr/lib/gcc/arm-none-eabi/12.2.1/../../../arm-none-eabi/lib/thumb/v8-m.main/nofp/libc_nano.a(lib_a-abort.o) (raise)
/usr/lib/gcc/arm-none-eabi/12.2.1/../../../arm-none-eabi/lib/thumb/v8-m.main/nofp/libc_nano.a(lib_a-signalr.o)
                              /usr/lib/gcc/arm-none-eabi/12.2.1/../../../arm-none-eabi/lib/thumb/v8-m.main/nofp/libc_nano.a(lib_a-signal.o) (_kill_r)
/usr/lib/gcc/arm-none-eabi/12.2.1/../../../arm-none-eabi/lib/thumb/v8-m.main/nofp/libc_nano.a(lib_a-stdio.o)
                              /usr/lib/gcc/arm-none-eabi/12.2.1/../../../arm-none-eabi/lib/thumb/v8-m.main/nofp/libc_nano.a(lib_a-findfp.o) (__sread)
/usr/lib/gcc/arm-none-eabi/12.2.1/../../../arm-none-eabi/lib/thumb/v8-m.main/nofp/libc_nano.a(lib_a-writer.o)
                              /usr/lib/gcc/arm-none-eabi/12.2.1/../../../arm-none-eabi/lib/thumb/v8-m.main/nofp/libc_nano.a(lib_a-stdio.o) (_write_r)
/usr/lib/gcc/arm-none-eabi/12.2.1/../../../arm-none-eabi/lib/thumb/v8-m.main/nofp/libc_nano.a(lib_a-closer.o)
                              /usr/lib/gcc/arm-none-eabi/12.2.1/../../../arm-none-eabi/lib/thumb/v8-m.main/nofp/libc_nano.a(lib_a-stdio.o) (_close_r)
/usr/lib/gcc/arm-none-eabi/12.2.1/../../../arm-none-eabi/lib/thumb/v8-m.main/nofp/libc_nano.a(lib_a-fstatr.o)
                              /usr/lib/gcc/arm-none-eabi/12.2.1/../../../arm-none-eabi/lib/thumb/v8-m.main/nofp/libc_nano.a(lib_a-makebuf.o) (_fstat_r)
/usr/lib/gcc/arm-none-eabi/12.2.1/../../../arm-none-eabi/lib/thumb/v8-m.main/nofp/libc_nano.a(lib_a-isattyr.o)
                              /usr/lib/gcc/arm-none-eabi/12.2.1/../../../arm-none-eabi/lib/thumb/v8-m.main/nofp/libc_nano.a(lib_a-makebuf.o) (_isatty_r)
/usr/lib/gcc/arm-none-eabi/12.2.1/../../../arm-none-eabi/lib/thumb/v8-m.main/nofp/libc_nano.a(lib_a-lseekr.o)
                              /usr/lib/gcc/arm-none-eabi/12.2.1/../../../arm-none-eabi/lib/thumb/v8-m.main/nofp/libc_nano.a(lib_a-stdio.o) (_lseek_r)
/usr/lib/gcc/arm-none-eabi/12.2.1/../../../arm-none-eabi/lib/thumb/v8-m.main/nofp/libc_nano.a(lib_a-mlock.o)
                              /usr/lib/gcc/arm-none-eabi/12.2.1/../../../arm-none-eabi/lib/thumb/v8-m.main/nofp/libc_nano.a(lib_a-nano-freer.o) (__malloc_lock)
/usr/lib/gcc/arm-none-eabi/12.2.1/../../../arm-none-eabi/lib/thumb/v8-m.main/nofp/libc_nano.a(lib_a-nano-msizer.o)
                              /usr/lib/gcc/arm-none-eabi/12.2.1/../../../arm-none-eabi/lib/thumb/v8-m.main/nofp/libc_nano.a(lib_a-nano-reallocr.o) (_malloc_usable_size_r)
/usr/lib/gcc/arm-none-eabi/12.2.1/../../../arm-none-eabi/lib/thumb/v8-m.main/nofp/libc_nano.a(lib_a-readr.o)
                              /usr/lib/gcc/arm-none-eabi/12.2.1/../../../arm-none-eabi/lib/thumb/v8-m.main/nofp/libc_nano.a(lib_a-stdio.o) (_read_r)
/usr/lib/gcc/arm-none-eabi/12.2.1/../../../arm-none-eabi/lib/thumb/v8-m.main/nofp/libc_nano.a(lib_a-reent.o)
                              /usr/lib/gcc/arm-none-eabi/12.2.1/../../../arm-none-eabi/lib/thumb/v8-m.main/nofp/libc_nano.a(lib_a-sbrkr.o) (errno)
/usr/lib/gcc/arm-none-eabi/12.2.1/../../../arm-none-eabi/lib/thumb/v8-m.main/nofp/libnosys.a(close.o)
                              /usr/lib/gcc/arm-none-eabi/12.2.1/../../../arm-none-eabi/lib/thumb/v8-m.main/nofp/libc_nano.a(lib_a-closer.o) (_close)
/usr/lib/gcc/arm-none-eabi/12.2.1/../../../arm-none-eabi/lib/thumb/v8-m.main/nofp/libnosys.a(fstat.o)
                              /usr/lib/gcc/arm-none-eabi/12.2.1/../../../arm-none-eabi/lib/thumb/v8-m.main/nofp/libc_nano.a(lib_a-fstatr.o) (_fstat)
/usr/lib/gcc/arm-none-eabi/12.2.1/../../../arm-none-eabi/lib/thumb/v8-m.main/nofp/libnosys.a(getpid.o)
                              /usr/lib/gcc/arm-none-eabi/12.2.1/../../../arm-none-eabi/lib/thumb/v8-m.main/nofp/libc_nano.a(lib_a-signalr.o) (_getpid)
/usr/lib/gcc/arm-none-eabi/12.2.1/../../../arm-none-eabi/lib/thumb/v8-m.main/nofp/libnosys.a(isatty.o)
                              /usr/lib/gcc/arm-none-eabi/12.2.1/../../../arm-none-eabi/lib/thumb/v8-m.main/nofp/libc_nano.a(lib_a-isattyr.o) (_isatty)
/usr/lib/gcc/arm-none-eabi/12.2.1/../../../arm-none-eabi/lib/thumb/v8-m.main/nofp/libnosys.a(kill.o)
                              /usr/lib/gcc/arm-none-eabi/12.2.1/../../../arm-none-eabi/lib/thumb/v8-m.main/nofp/libc_nano.a(lib_a-signalr.o) (_kill)
/usr/lib/gcc/arm-none-eabi/12.2.1/../../../arm-none-eabi/lib/thumb/v8-m.main/nofp/libnosys.a(lseek.o)
                              /usr/lib/gcc/arm-none-eabi/12.2.1/../../../arm-none-eabi/lib/thumb/v8-m.main/nofp/libc_nano.a(lib_a-lseekr.o) (_lseek)
/usr/lib/gcc/arm-none-eabi/12.2.1/../../../arm-none-eabi/lib/thumb/v8-m.main/nofp/libnosys.a(read.o)
                              /usr/lib/gcc/arm-none-eabi/12.2.1/../../../arm-none-eabi/lib/thumb/v8-m.main/nofp/libc_nano.a(lib_a-readr.o) (_read)
/usr/lib/gcc/arm-none-eabi/12.2.1/../../../arm-none-eabi/lib/thumb/v8-m.main/nofp/libnosys.a(write.o)
                              /usr/lib/gcc/arm-none-eabi/12.2.1/../../../arm-none-eabi/lib/thumb/v8-m.main/nofp/libc_nano.a(lib_a-writer.o) (_write)
/usr/lib/gcc/arm-none-eabi/12.2.1/../../../arm-none-eabi/lib/thumb/v8-m.main/nofp/libnosys.a(_exit.o)
                              /usr/lib/gcc/arm-none-eabi/12.2.1/../../../arm-none-eabi/lib/thumb/v8-m.main/nofp/libc_nano.a(lib_a-abort.o) (_exit)
/usr/lib/gcc/arm-none-eabi/12.2.1/thumb/v8-m.main/nofp/libgcc.a(_arm_addsubdf3.o)
                              ./src/mbed_printf_implementation.o (__aeabi_dsub)
/usr/lib/gcc/arm-none-eabi/12.2.1/thumb/v8-m.main/nofp/libgcc.a(_arm_cmpdf2.o)
                              ./src/mbed_printf_implementation.o (__aeabi_dcmplt)
/usr/lib/gcc/arm-none-eabi/12.2.1/thumb/v8-m.main/nofp/libgcc.a(_aeabi_ldivmod.o)
                              ./rzg/fsp/src/r_scif_uart/r_scif_uart.o (__aeabi_ldivmod)
/usr/lib/gcc/arm-none-eabi/12.2.1/thumb/v8-m.main/nofp/libgcc.a(_fixdfdi.o)
                              ./src/mbed_printf_implementation.o (__aeabi_d2lz)
/usr/lib/gcc/arm-none-eabi/12.2.1/thumb/v8-m.main/nofp/libgcc.a(_fixunsdfdi.o)
                              ./src/mbed_printf_implementation.o (__aeabi_d2ulz)
/usr/lib/gcc/arm-none-eabi/12.2.1/thumb/v8-m.main/nofp/libgcc.a(_udivmoddi4.o)
                              /usr/lib/gcc/arm-none-eabi/12.2.1/thumb/v8-m.main/nofp/libgcc.a(_aeabi_ldivmod.o) (__udivmoddi4)
/usr/lib/gcc/arm-none-eabi/12.2.1/thumb/v8-m.main/nofp/libgcc.a(_arm_muldf3.o)
                              /usr/lib/gcc/arm-none-eabi/12.2.1/thumb/v8-m.main/nofp/libgcc.a(_fixunsdfdi.o) (__aeabi_dmul)
/usr/lib/gcc/arm-none-eabi/12.2.1/thumb/v8-m.main/nofp/libgcc.a(_dvmd_tls.o)
                              /usr/lib/gcc/arm-none-eabi/12.2.1/thumb/v8-m.main/nofp/libgcc.a(_aeabi_ldivmod.o) (__aeabi_ldiv0)
/usr/lib/gcc/arm-none-eabi/12.2.1/thumb/v8-m.main/nofp/libgcc.a(_arm_fixunsdfsi.o)
                              /usr/lib/gcc/arm-none-eabi/12.2.1/thumb/v8-m.main/nofp/libgcc.a(_fixunsdfdi.o) (__aeabi_d2uiz)

Discarded input sections

 .text          0x00000000        0x0 ./src/MainTask_entry.o
 .data          0x00000000        0x0 ./src/MainTask_entry.o
 .bss           0x00000000        0x0 ./src/MainTask_entry.o
 .text          0x00000000        0x0 ./src/blinky_thread_entry.o
 .data          0x00000000        0x0 ./src/blinky_thread_entry.o
 .bss           0x00000000        0x0 ./src/blinky_thread_entry.o
 .text          0x00000000        0x0 ./src/hal_entry.o
 .data          0x00000000        0x0 ./src/hal_entry.o
 .bss           0x00000000        0x0 ./src/hal_entry.o
 .text          0x00000000        0x0 ./src/mbed_printf_implementation.o
 .data          0x00000000        0x0 ./src/mbed_printf_implementation.o
 .bss           0x00000000        0x0 ./src/mbed_printf_implementation.o
 .text          0x00000000        0x0 ./src/pin_data.o
 .data          0x00000000        0x0 ./src/pin_data.o
 .bss           0x00000000        0x0 ./src/pin_data.o
 .text          0x00000000        0x0 ./src/platform_info.o
 .data          0x00000000        0x0 ./src/platform_info.o
 .bss           0x00000000        0x0 ./src/platform_info.o
 .text.platform_poll
                0x00000000        0x4 ./src/platform_info.o
 .text          0x00000000        0x0 ./src/rpmsg_demo.o
 .data          0x00000000        0x0 ./src/rpmsg_demo.o
 .bss           0x00000000        0x0 ./src/rpmsg_demo.o
 .text          0x00000000        0x0 ./src/rsc_table.o
 .data          0x00000000        0x0 ./src/rsc_table.o
 .bss           0x00000000        0x0 ./src/rsc_table.o
 .text          0x00000000        0x0 ./src/rzg2_rproc.o
 .data          0x00000000        0x0 ./src/rzg2_rproc.o
 .bss           0x00000000        0x0 ./src/rzg2_rproc.o
 .text          0x00000000        0x0 ./src/serial.o
 .data          0x00000000        0x0 ./src/serial.o
 .bss           0x00000000        0x0 ./src/serial.o
 .text.printf   0x00000000       0x2c ./src/serial.o
 .text.printf_buff
                0x00000000       0x84 ./src/serial.o
 .text.sprintf  0x00000000       0x24 ./src/serial.o
 .text.snprintf
                0x00000000       0x20 ./src/serial.o
 .bss.xMutexBuffer
                0x00000000       0x48 ./src/serial.o
 .bss.xSemaphore
                0x00000000        0x4 ./src/serial.o
 .bss.printf_initialised
                0x00000000        0x1 ./src/serial.o
 .text          0x00000000        0x0 ./src/sys_init.o
 .data          0x00000000        0x0 ./src/sys_init.o
 .bss           0x00000000        0x0 ./src/sys_init.o
 .text.cleanup_system
                0x00000000        0x4 ./src/sys_init.o
 .text          0x00000000        0x0 ./rzg_gen/MainTask.o
 .data          0x00000000        0x0 ./rzg_gen/MainTask.o
 .bss           0x00000000        0x0 ./rzg_gen/MainTask.o
 .text          0x00000000        0x0 ./rzg_gen/blinky_thread.o
 .data          0x00000000        0x0 ./rzg_gen/blinky_thread.o
 .bss           0x00000000        0x0 ./rzg_gen/blinky_thread.o
 .text          0x00000000        0x0 ./rzg_gen/common_data.o
 .data          0x00000000        0x0 ./rzg_gen/common_data.o
 .bss           0x00000000        0x0 ./rzg_gen/common_data.o
 .rodata.g_ioport
                0x00000000        0xc ./rzg_gen/common_data.o
 .text          0x00000000        0x0 ./rzg_gen/hal_data.o
 .data          0x00000000        0x0 ./rzg_gen/hal_data.o
 .bss           0x00000000        0x0 ./rzg_gen/hal_data.o
 .text.ulGetRunTimeCounterValue
                0x00000000        0x4 ./rzg_gen/hal_data.o
 .rodata.g_timer2
                0x00000000        0xc ./rzg_gen/hal_data.o
 .text          0x00000000        0x0 ./rzg_gen/main.o
 .data          0x00000000        0x0 ./rzg_gen/main.o
 .bss           0x00000000        0x0 ./rzg_gen/main.o
 .text          0x00000000        0x0 ./rzg_gen/vector_data.o
 .data          0x00000000        0x0 ./rzg_gen/vector_data.o
 .bss           0x00000000        0x0 ./rzg_gen/vector_data.o
 .text          0x00000000        0x0 ./rzg/linaro/open-amp/lib/virtio/virtio.o
 .data          0x00000000        0x0 ./rzg/linaro/open-amp/lib/virtio/virtio.o
 .bss           0x00000000        0x0 ./rzg/linaro/open-amp/lib/virtio/virtio.o
 .rodata.virtio_dev_name.str1.4
                0x00000000        0x8 ./rzg/linaro/open-amp/lib/virtio/virtio.o
 .text.virtio_dev_name
                0x00000000       0x24 ./rzg/linaro/open-amp/lib/virtio/virtio.o
 .text.virtio_describe
                0x00000000        0x4 ./rzg/linaro/open-amp/lib/virtio/virtio.o
 .rodata.str1.4
                0x00000000       0x41 ./rzg/linaro/open-amp/lib/virtio/virtio.o
 .rodata.virtio_ident_table
                0x00000000       0x48 ./rzg/linaro/open-amp/lib/virtio/virtio.o
 .text          0x00000000        0x0 ./rzg/linaro/open-amp/lib/virtio/virtqueue.o
 .data          0x00000000        0x0 ./rzg/linaro/open-amp/lib/virtio/virtqueue.o
 .bss           0x00000000        0x0 ./rzg/linaro/open-amp/lib/virtio/virtqueue.o
 .text.virtqueue_get_buffer_length
                0x00000000        0xc ./rzg/linaro/open-amp/lib/virtio/virtqueue.o
 .rodata.virtqueue_free.str1.4
                0x00000000       0x22 ./rzg/linaro/open-amp/lib/virtio/virtqueue.o
 .text.virtqueue_free
                0x00000000       0x38 ./rzg/linaro/open-amp/lib/virtio/virtqueue.o
 .text.virtqueue_enable_cb
                0x00000000       0x30 ./rzg/linaro/open-amp/lib/virtio/virtqueue.o
 .text.virtqueue_disable_cb
                0x00000000       0x2c ./rzg/linaro/open-amp/lib/virtio/virtqueue.o
 .rodata.virtqueue_dump.str1.4
                0x00000000       0x92 ./rzg/linaro/open-amp/lib/virtio/virtqueue.o
 .text.virtqueue_dump
                0x00000000       0x54 ./rzg/linaro/open-amp/lib/virtio/virtqueue.o
 .text          0x00000000        0x0 ./rzg/linaro/open-amp/lib/rpmsg/rpmsg.o
 .data          0x00000000        0x0 ./rzg/linaro/open-amp/lib/rpmsg/rpmsg.o
 .bss           0x00000000        0x0 ./rzg/linaro/open-amp/lib/rpmsg/rpmsg.o
 .text          0x00000000        0x0 ./rzg/linaro/open-amp/lib/rpmsg/rpmsg_virtio.o
 .data          0x00000000        0x0 ./rzg/linaro/open-amp/lib/rpmsg/rpmsg_virtio.o
 .bss           0x00000000        0x0 ./rzg/linaro/open-amp/lib/rpmsg/rpmsg_virtio.o
 .text.rpmsg_virtio_init_shm_pool
                0x00000000       0x14 ./rzg/linaro/open-amp/lib/rpmsg/rpmsg_virtio.o
 .text.rpmsg_virtio_get_buffer_size
                0x00000000       0x6c ./rzg/linaro/open-amp/lib/rpmsg/rpmsg_virtio.o
 .text          0x00000000        0x0 ./rzg/linaro/open-amp/lib/remoteproc/elf_loader.o
 .data          0x00000000        0x0 ./rzg/linaro/open-amp/lib/remoteproc/elf_loader.o
 .bss           0x00000000        0x0 ./rzg/linaro/open-amp/lib/remoteproc/elf_loader.o
 .text.elf_get_entry
                0x00000000        0xc ./rzg/linaro/open-amp/lib/remoteproc/elf_loader.o
 .text.elf_get_load_state
                0x00000000       0x14 ./rzg/linaro/open-amp/lib/remoteproc/elf_loader.o
 .rodata.elf_load_header.str1.4
                0x00000000      0x114 ./rzg/linaro/open-amp/lib/remoteproc/elf_loader.o
 .text.elf_load_header
                0x00000000      0x390 ./rzg/linaro/open-amp/lib/remoteproc/elf_loader.o
 .text.elf_release
                0x00000000       0x4c ./rzg/linaro/open-amp/lib/remoteproc/elf_loader.o
 .rodata.elf_locate_rsc_table.str1.4
                0x00000000       0x24 ./rzg/linaro/open-amp/lib/remoteproc/elf_loader.o
 .text.elf_locate_rsc_table
                0x00000000       0xf8 ./rzg/linaro/open-amp/lib/remoteproc/elf_loader.o
 .rodata.elf_load.str1.4
                0x00000000       0xa5 ./rzg/linaro/open-amp/lib/remoteproc/elf_loader.o
 .text.elf_load
                0x00000000      0x284 ./rzg/linaro/open-amp/lib/remoteproc/elf_loader.o
 .rodata.elf_identify.str1.4
                0x00000000        0x5 ./rzg/linaro/open-amp/lib/remoteproc/elf_loader.o
 .text.elf_identify
                0x00000000       0x2c ./rzg/linaro/open-amp/lib/remoteproc/elf_loader.o
 .rodata.__func__.0
                0x00000000       0x15 ./rzg/linaro/open-amp/lib/remoteproc/elf_loader.o
 .rodata.__func__.1
                0x00000000        0x9 ./rzg/linaro/open-amp/lib/remoteproc/elf_loader.o
 .rodata.__func__.2
                0x00000000       0x10 ./rzg/linaro/open-amp/lib/remoteproc/elf_loader.o
 .data.elf_ops  0x00000000       0x18 ./rzg/linaro/open-amp/lib/remoteproc/elf_loader.o
 .debug_info    0x00000000     0x2e39 ./rzg/linaro/open-amp/lib/remoteproc/elf_loader.o
 .debug_abbrev  0x00000000      0x4b0 ./rzg/linaro/open-amp/lib/remoteproc/elf_loader.o
 .debug_loc     0x00000000     0x2203 ./rzg/linaro/open-amp/lib/remoteproc/elf_loader.o
 .debug_aranges
                0x00000000       0x50 ./rzg/linaro/open-amp/lib/remoteproc/elf_loader.o
 .debug_ranges  0x00000000      0x7a8 ./rzg/linaro/open-amp/lib/remoteproc/elf_loader.o
 .debug_line    0x00000000     0x11a9 ./rzg/linaro/open-amp/lib/remoteproc/elf_loader.o
 .debug_str     0x00000000      0xb2b ./rzg/linaro/open-amp/lib/remoteproc/elf_loader.o
 .comment       0x00000000       0x27 ./rzg/linaro/open-amp/lib/remoteproc/elf_loader.o
 .debug_frame   0x00000000      0x13c ./rzg/linaro/open-amp/lib/remoteproc/elf_loader.o
 .ARM.attributes
                0x00000000       0x32 ./rzg/linaro/open-amp/lib/remoteproc/elf_loader.o
 .text          0x00000000        0x0 ./rzg/linaro/open-amp/lib/remoteproc/remoteproc.o
 .data          0x00000000        0x0 ./rzg/linaro/open-amp/lib/remoteproc/remoteproc.o
 .bss           0x00000000        0x0 ./rzg/linaro/open-amp/lib/remoteproc/remoteproc.o
 .rodata.remoteproc_get_rsc_table.str1.4
                0x00000000       0x21 ./rzg/linaro/open-amp/lib/remoteproc/remoteproc.o
 .text.remoteproc_get_rsc_table
                0x00000000       0xac ./rzg/linaro/open-amp/lib/remoteproc/remoteproc.o
 .text.remoteproc_parse_rsc_table
                0x00000000       0x3c ./rzg/linaro/open-amp/lib/remoteproc/remoteproc.o
 .text.remoteproc_config
                0x00000000       0x50 ./rzg/linaro/open-amp/lib/remoteproc/remoteproc.o
 .text.remoteproc_start
                0x00000000       0x48 ./rzg/linaro/open-amp/lib/remoteproc/remoteproc.o
 .text.remoteproc_stop
                0x00000000       0x50 ./rzg/linaro/open-amp/lib/remoteproc/remoteproc.o
 .text.remoteproc_shutdown
                0x00000000       0x58 ./rzg/linaro/open-amp/lib/remoteproc/remoteproc.o
 .text.remoteproc_get_io_with_name
                0x00000000       0x3c ./rzg/linaro/open-amp/lib/remoteproc/remoteproc.o
 .text.remoteproc_get_io_with_da
                0x00000000       0xa0 ./rzg/linaro/open-amp/lib/remoteproc/remoteproc.o
 .text.remoteproc_get_io_with_va
                0x00000000       0x34 ./rzg/linaro/open-amp/lib/remoteproc/remoteproc.o
 .text.remoteproc_load
                0x00000000      0x638 ./rzg/linaro/open-amp/lib/remoteproc/remoteproc.o
 .rodata.remoteproc_load_noblock.str1.4
                0x00000000      0x1dc ./rzg/linaro/open-amp/lib/remoteproc/remoteproc.o
 .text.remoteproc_load_noblock
                0x00000000      0x4fc ./rzg/linaro/open-amp/lib/remoteproc/remoteproc.o
 .rodata.__func__.2
                0x00000000       0x18 ./rzg/linaro/open-amp/lib/remoteproc/remoteproc.o
 .rodata.__func__.3
                0x00000000       0x10 ./rzg/linaro/open-amp/lib/remoteproc/remoteproc.o
 .text          0x00000000        0x0 ./rzg/linaro/open-amp/lib/remoteproc/remoteproc_virtio.o
 .data          0x00000000        0x0 ./rzg/linaro/open-amp/lib/remoteproc/remoteproc_virtio.o
 .bss           0x00000000        0x0 ./rzg/linaro/open-amp/lib/remoteproc/remoteproc_virtio.o
 .text.rproc_virtio_wait_remote_ready
                0x00000000       0x18 ./rzg/linaro/open-amp/lib/remoteproc/remoteproc_virtio.o
 .text          0x00000000        0x0 ./rzg/linaro/open-amp/lib/remoteproc/rsc_table_parser.o
 .data          0x00000000        0x0 ./rzg/linaro/open-amp/lib/remoteproc/rsc_table_parser.o
 .bss           0x00000000        0x0 ./rzg/linaro/open-amp/lib/remoteproc/rsc_table_parser.o
 .text.handle_vendor_rsc
                0x00000000       0x14 ./rzg/linaro/open-amp/lib/remoteproc/rsc_table_parser.o
 .text          0x00000000        0x0 ./rzg/linaro/libmetal/lib/system/freertos/rzg2/sys.o
 .data          0x00000000        0x0 ./rzg/linaro/libmetal/lib/system/freertos/rzg2/sys.o
 .bss           0x00000000        0x0 ./rzg/linaro/libmetal/lib/system/freertos/rzg2/sys.o
 .text.metal_generic_default_poll
                0x00000000        0x4 ./rzg/linaro/libmetal/lib/system/freertos/rzg2/sys.o
 .text          0x00000000        0x0 ./rzg/linaro/libmetal/lib/system/freertos/condition.o
 .data          0x00000000        0x0 ./rzg/linaro/libmetal/lib/system/freertos/condition.o
 .bss           0x00000000        0x0 ./rzg/linaro/libmetal/lib/system/freertos/condition.o
 .text.metal_condition_wait
                0x00000000        0x4 ./rzg/linaro/libmetal/lib/system/freertos/condition.o
 .debug_info    0x00000000      0x10c ./rzg/linaro/libmetal/lib/system/freertos/condition.o
 .debug_abbrev  0x00000000       0xb6 ./rzg/linaro/libmetal/lib/system/freertos/condition.o
 .debug_loc     0x00000000       0x25 ./rzg/linaro/libmetal/lib/system/freertos/condition.o
 .debug_aranges
                0x00000000       0x20 ./rzg/linaro/libmetal/lib/system/freertos/condition.o
 .debug_ranges  0x00000000       0x10 ./rzg/linaro/libmetal/lib/system/freertos/condition.o
 .debug_line    0x00000000       0xc1 ./rzg/linaro/libmetal/lib/system/freertos/condition.o
 .debug_str     0x00000000      0x247 ./rzg/linaro/libmetal/lib/system/freertos/condition.o
 .comment       0x00000000       0x27 ./rzg/linaro/libmetal/lib/system/freertos/condition.o
 .debug_frame   0x00000000       0x20 ./rzg/linaro/libmetal/lib/system/freertos/condition.o
 .ARM.attributes
                0x00000000       0x32 ./rzg/linaro/libmetal/lib/system/freertos/condition.o
 .text          0x00000000        0x0 ./rzg/linaro/libmetal/lib/system/freertos/device.o
 .data          0x00000000        0x0 ./rzg/linaro/libmetal/lib/system/freertos/device.o
 .bss           0x00000000        0x0 ./rzg/linaro/libmetal/lib/system/freertos/device.o
 .text          0x00000000        0x0 ./rzg/linaro/libmetal/lib/system/freertos/init.o
 .data          0x00000000        0x0 ./rzg/linaro/libmetal/lib/system/freertos/init.o
 .bss           0x00000000        0x0 ./rzg/linaro/libmetal/lib/system/freertos/init.o
 .text.metal_sys_finish
                0x00000000        0xc ./rzg/linaro/libmetal/lib/system/freertos/init.o
 .text          0x00000000        0x0 ./rzg/linaro/libmetal/lib/system/freertos/io.o
 .data          0x00000000        0x0 ./rzg/linaro/libmetal/lib/system/freertos/io.o
 .bss           0x00000000        0x0 ./rzg/linaro/libmetal/lib/system/freertos/io.o
 .text          0x00000000        0x0 ./rzg/linaro/libmetal/lib/system/freertos/irq.o
 .data          0x00000000        0x0 ./rzg/linaro/libmetal/lib/system/freertos/irq.o
 .bss           0x00000000        0x0 ./rzg/linaro/libmetal/lib/system/freertos/irq.o
 .text.metal_irq_save_disable
                0x00000000        0x4 ./rzg/linaro/libmetal/lib/system/freertos/irq.o
 .text.metal_irq_restore_enable
                0x00000000        0x4 ./rzg/linaro/libmetal/lib/system/freertos/irq.o
 .text.metal_irq_isr
                0x00000000       0x4c ./rzg/linaro/libmetal/lib/system/freertos/irq.o
 .text          0x00000000        0x0 ./rzg/linaro/libmetal/lib/system/freertos/shmem.o
 .data          0x00000000        0x0 ./rzg/linaro/libmetal/lib/system/freertos/shmem.o
 .bss           0x00000000        0x0 ./rzg/linaro/libmetal/lib/system/freertos/shmem.o
 .text.metal_shmem_open
                0x00000000        0x4 ./rzg/linaro/libmetal/lib/system/freertos/shmem.o
 .debug_info    0x00000000      0x341 ./rzg/linaro/libmetal/lib/system/freertos/shmem.o
 .debug_abbrev  0x00000000      0x140 ./rzg/linaro/libmetal/lib/system/freertos/shmem.o
 .debug_loc     0x00000000       0x6f ./rzg/linaro/libmetal/lib/system/freertos/shmem.o
 .debug_aranges
                0x00000000       0x20 ./rzg/linaro/libmetal/lib/system/freertos/shmem.o
 .debug_ranges  0x00000000       0x10 ./rzg/linaro/libmetal/lib/system/freertos/shmem.o
 .debug_line    0x00000000       0xf1 ./rzg/linaro/libmetal/lib/system/freertos/shmem.o
 .debug_str     0x00000000      0x361 ./rzg/linaro/libmetal/lib/system/freertos/shmem.o
 .comment       0x00000000       0x27 ./rzg/linaro/libmetal/lib/system/freertos/shmem.o
 .debug_frame   0x00000000       0x20 ./rzg/linaro/libmetal/lib/system/freertos/shmem.o
 .ARM.attributes
                0x00000000       0x32 ./rzg/linaro/libmetal/lib/system/freertos/shmem.o
 .text          0x00000000        0x0 ./rzg/linaro/libmetal/lib/system/freertos/time.o
 .data          0x00000000        0x0 ./rzg/linaro/libmetal/lib/system/freertos/time.o
 .bss           0x00000000        0x0 ./rzg/linaro/libmetal/lib/system/freertos/time.o
 .text.metal_get_timestamp
                0x00000000        0xc ./rzg/linaro/libmetal/lib/system/freertos/time.o
 .debug_info    0x00000000       0xb8 ./rzg/linaro/libmetal/lib/system/freertos/time.o
 .debug_abbrev  0x00000000       0x75 ./rzg/linaro/libmetal/lib/system/freertos/time.o
 .debug_aranges
                0x00000000       0x20 ./rzg/linaro/libmetal/lib/system/freertos/time.o
 .debug_ranges  0x00000000       0x10 ./rzg/linaro/libmetal/lib/system/freertos/time.o
 .debug_line    0x00000000      0x112 ./rzg/linaro/libmetal/lib/system/freertos/time.o
 .debug_str     0x00000000      0x238 ./rzg/linaro/libmetal/lib/system/freertos/time.o
 .comment       0x00000000       0x27 ./rzg/linaro/libmetal/lib/system/freertos/time.o
 .debug_frame   0x00000000       0x28 ./rzg/linaro/libmetal/lib/system/freertos/time.o
 .ARM.attributes
                0x00000000       0x32 ./rzg/linaro/libmetal/lib/system/freertos/time.o
 .text          0x00000000        0x0 ./rzg/linaro/libmetal/lib/device.o
 .data          0x00000000        0x0 ./rzg/linaro/libmetal/lib/device.o
 .bss           0x00000000        0x0 ./rzg/linaro/libmetal/lib/device.o
 .rodata.metal_bus_unregister.str1.4
                0x00000000       0x15 ./rzg/linaro/libmetal/lib/device.o
 .text.metal_bus_unregister
                0x00000000       0x3c ./rzg/linaro/libmetal/lib/device.o
 .text.metal_bus_find
                0x00000000       0x38 ./rzg/linaro/libmetal/lib/device.o
 .text          0x00000000        0x0 ./rzg/linaro/libmetal/lib/dma.o
 .data          0x00000000        0x0 ./rzg/linaro/libmetal/lib/dma.o
 .bss           0x00000000        0x0 ./rzg/linaro/libmetal/lib/dma.o
 .text.metal_dma_map
                0x00000000       0x38 ./rzg/linaro/libmetal/lib/dma.o
 .text.metal_dma_unmap
                0x00000000       0x24 ./rzg/linaro/libmetal/lib/dma.o
 .debug_info    0x00000000      0x63b ./rzg/linaro/libmetal/lib/dma.o
 .debug_abbrev  0x00000000      0x164 ./rzg/linaro/libmetal/lib/dma.o
 .debug_loc     0x00000000      0x277 ./rzg/linaro/libmetal/lib/dma.o
 .debug_aranges
                0x00000000       0x28 ./rzg/linaro/libmetal/lib/dma.o
 .debug_ranges  0x00000000       0x18 ./rzg/linaro/libmetal/lib/dma.o
 .debug_line    0x00000000      0x1a8 ./rzg/linaro/libmetal/lib/dma.o
 .debug_str     0x00000000      0x42a ./rzg/linaro/libmetal/lib/dma.o
 .comment       0x00000000       0x27 ./rzg/linaro/libmetal/lib/dma.o
 .debug_frame   0x00000000       0x58 ./rzg/linaro/libmetal/lib/dma.o
 .ARM.attributes
                0x00000000       0x32 ./rzg/linaro/libmetal/lib/dma.o
 .text          0x00000000        0x0 ./rzg/linaro/libmetal/lib/init.o
 .data          0x00000000        0x0 ./rzg/linaro/libmetal/lib/init.o
 .bss           0x00000000        0x0 ./rzg/linaro/libmetal/lib/init.o
 .text.metal_finish
                0x00000000       0x18 ./rzg/linaro/libmetal/lib/init.o
 .text          0x00000000        0x0 ./rzg/linaro/libmetal/lib/io.o
 .data          0x00000000        0x0 ./rzg/linaro/libmetal/lib/io.o
 .bss           0x00000000        0x0 ./rzg/linaro/libmetal/lib/io.o
 .text.metal_io_init
                0x00000000       0x5c ./rzg/linaro/libmetal/lib/io.o
 .text          0x00000000        0x0 ./rzg/linaro/libmetal/lib/log.o
 .data          0x00000000        0x0 ./rzg/linaro/libmetal/lib/log.o
 .bss           0x00000000        0x0 ./rzg/linaro/libmetal/lib/log.o
 .text.metal_set_log_handler
                0x00000000        0xc ./rzg/linaro/libmetal/lib/log.o
 .text.metal_get_log_handler
                0x00000000        0xc ./rzg/linaro/libmetal/lib/log.o
 .text.metal_set_log_level
                0x00000000        0xc ./rzg/linaro/libmetal/lib/log.o
 .text.metal_get_log_level
                0x00000000        0xc ./rzg/linaro/libmetal/lib/log.o
 .text          0x00000000        0x0 ./rzg/linaro/libmetal/lib/shmem.o
 .data          0x00000000        0x0 ./rzg/linaro/libmetal/lib/shmem.o
 .bss           0x00000000        0x0 ./rzg/linaro/libmetal/lib/shmem.o
 .rodata.metal_shmem_register_generic.str1.4
                0x00000000       0x61 ./rzg/linaro/libmetal/lib/shmem.o
 .text.metal_shmem_register_generic
                0x00000000       0x54 ./rzg/linaro/libmetal/lib/shmem.o
 .text.metal_shmem_open_generic
                0x00000000       0x44 ./rzg/linaro/libmetal/lib/shmem.o
 .rodata.__func__.0
                0x00000000       0x1d ./rzg/linaro/libmetal/lib/shmem.o
 .debug_info    0x00000000      0x646 ./rzg/linaro/libmetal/lib/shmem.o
 .debug_abbrev  0x00000000      0x257 ./rzg/linaro/libmetal/lib/shmem.o
 .debug_loc     0x00000000      0x199 ./rzg/linaro/libmetal/lib/shmem.o
 .debug_aranges
                0x00000000       0x28 ./rzg/linaro/libmetal/lib/shmem.o
 .debug_ranges  0x00000000       0x30 ./rzg/linaro/libmetal/lib/shmem.o
 .debug_line    0x00000000      0x24b ./rzg/linaro/libmetal/lib/shmem.o
 .debug_str     0x00000000      0x52b ./rzg/linaro/libmetal/lib/shmem.o
 .comment       0x00000000       0x27 ./rzg/linaro/libmetal/lib/shmem.o
 .debug_frame   0x00000000       0x48 ./rzg/linaro/libmetal/lib/shmem.o
 .ARM.attributes
                0x00000000       0x32 ./rzg/linaro/libmetal/lib/shmem.o
 .text          0x00000000        0x0 ./rzg/linaro/libmetal/lib/version.o
 .data          0x00000000        0x0 ./rzg/linaro/libmetal/lib/version.o
 .bss           0x00000000        0x0 ./rzg/linaro/libmetal/lib/version.o
 .text.metal_ver_major
                0x00000000        0x4 ./rzg/linaro/libmetal/lib/version.o
 .text.metal_ver_minor
                0x00000000        0x4 ./rzg/linaro/libmetal/lib/version.o
 .text.metal_ver_patch
                0x00000000        0x4 ./rzg/linaro/libmetal/lib/version.o
 .rodata.metal_ver.str1.4
                0x00000000        0x6 ./rzg/linaro/libmetal/lib/version.o
 .text.metal_ver
                0x00000000        0x8 ./rzg/linaro/libmetal/lib/version.o
 .debug_info    0x00000000       0x93 ./rzg/linaro/libmetal/lib/version.o
 .debug_abbrev  0x00000000       0x8e ./rzg/linaro/libmetal/lib/version.o
 .debug_aranges
                0x00000000       0x38 ./rzg/linaro/libmetal/lib/version.o
 .debug_ranges  0x00000000       0x28 ./rzg/linaro/libmetal/lib/version.o
 .debug_line    0x00000000       0x9e ./rzg/linaro/libmetal/lib/version.o
 .debug_str     0x00000000      0x1a7 ./rzg/linaro/libmetal/lib/version.o
 .comment       0x00000000       0x27 ./rzg/linaro/libmetal/lib/version.o
 .debug_frame   0x00000000       0x50 ./rzg/linaro/libmetal/lib/version.o
 .ARM.attributes
                0x00000000       0x32 ./rzg/linaro/libmetal/lib/version.o
 .text          0x00000000        0x0 ./rzg/fsp/src/rm_freertos_port/port.o
 .data          0x00000000        0x0 ./rzg/fsp/src/rm_freertos_port/port.o
 .bss           0x00000000        0x0 ./rzg/fsp/src/rm_freertos_port/port.o
 .text.vPortSetupTimerInterrupt
                0x00000000       0x30 ./rzg/fsp/src/rm_freertos_port/port.o
 .rodata.vPortEndScheduler.str1.4
                0x00000000       0x1c ./rzg/fsp/src/rm_freertos_port/port.o
 .text.vPortEndScheduler
                0x00000000       0x2c ./rzg/fsp/src/rm_freertos_port/port.o
 .text.xPortIsInsideInterrupt
                0x00000000        0xc ./rzg/fsp/src/rm_freertos_port/port.o
 .text.rm_freertos_port_sleep_preserving_lpm
                0x00000000        0x8 ./rzg/fsp/src/rm_freertos_port/port.o
 .text.vPortConfigureTimerForRunTimeStatus
                0x00000000        0x4 ./rzg/fsp/src/rm_freertos_port/port.o
 .rodata.__func__.0
                0x00000000       0x12 ./rzg/fsp/src/rm_freertos_port/port.o
 .text          0x00000000        0x0 ./rzg/fsp/src/rm_freertos_port/portasm.o
 .data          0x00000000        0x0 ./rzg/fsp/src/rm_freertos_port/portasm.o
 .bss           0x00000000        0x0 ./rzg/fsp/src/rm_freertos_port/portasm.o
 .text.xIsPrivileged
                0x00000000       0x10 ./rzg/fsp/src/rm_freertos_port/portasm.o
 .text.vRaisePrivilege
                0x00000000       0x10 ./rzg/fsp/src/rm_freertos_port/portasm.o
 .text.vResetPrivilege
                0x00000000       0x10 ./rzg/fsp/src/rm_freertos_port/portasm.o
 .text.vPortAllocateSecureContext
                0x00000000        0x4 ./rzg/fsp/src/rm_freertos_port/portasm.o
 .text.vPortFreeSecureContext
                0x00000000        0xc ./rzg/fsp/src/rm_freertos_port/portasm.o
 .text          0x00000000        0x0 ./rzg/fsp/src/r_scif_uart/r_scif_uart.o
 .data          0x00000000        0x0 ./rzg/fsp/src/r_scif_uart/r_scif_uart.o
 .bss           0x00000000        0x0 ./rzg/fsp/src/r_scif_uart/r_scif_uart.o
 .text.R_SCIF_UART_BaudCalculate
                0x00000000      0x1cc ./rzg/fsp/src/r_scif_uart/r_scif_uart.o
 .rodata.g_div_coefficient
                0x00000000       0x12 ./rzg/fsp/src/r_scif_uart/r_scif_uart.o
 .rodata.g_async_baud
                0x00000000        0x9 ./rzg/fsp/src/r_scif_uart/r_scif_uart.o
 .text          0x00000000        0x0 ./rzg/fsp/src/r_mhu_ns/r_mhu_ns.o
 .data          0x00000000        0x0 ./rzg/fsp/src/r_mhu_ns/r_mhu_ns.o
 .bss           0x00000000        0x0 ./rzg/fsp/src/r_mhu_ns/r_mhu_ns.o
 .text.metal_irq_isr_wrapper
                0x00000000       0x10 ./rzg/fsp/src/r_mhu_ns/r_mhu_ns.o
 .text          0x00000000        0x0 ./rzg/fsp/src/r_ioport/r_ioport.o
 .data          0x00000000        0x0 ./rzg/fsp/src/r_ioport/r_ioport.o
 .bss           0x00000000        0x0 ./rzg/fsp/src/r_ioport/r_ioport.o
 .text.R_IOPORT_Close
                0x00000000        0xc ./rzg/fsp/src/r_ioport/r_ioport.o
 .text.R_IOPORT_PinRead
                0x00000000       0x1c ./rzg/fsp/src/r_ioport/r_ioport.o
 .text.R_IOPORT_PortRead
                0x00000000       0x10 ./rzg/fsp/src/r_ioport/r_ioport.o
 .text.R_IOPORT_PortWrite
                0x00000000       0x24 ./rzg/fsp/src/r_ioport/r_ioport.o
 .text.R_IOPORT_PinWrite
                0x00000000       0x3c ./rzg/fsp/src/r_ioport/r_ioport.o
 .text.R_IOPORT_PortDirectionSet
                0x00000000       0x2c ./rzg/fsp/src/r_ioport/r_ioport.o
 .text.R_IOPORT_SDVoltageModeCfg
                0x00000000       0x20 ./rzg/fsp/src/r_ioport/r_ioport.o
 .text.R_IOPORT_QSPIVoltageModeCfg
                0x00000000        0xc ./rzg/fsp/src/r_ioport/r_ioport.o
 .text.R_IOPORT_EthernetVoltageModeCfg
                0x00000000       0x20 ./rzg/fsp/src/r_ioport/r_ioport.o
 .text.R_IOPORT_PortEventInputRead
                0x00000000        0x4 ./rzg/fsp/src/r_ioport/r_ioport.o
 .text.R_IOPORT_PinEventInputRead
                0x00000000        0x4 ./rzg/fsp/src/r_ioport/r_ioport.o
 .text.R_IOPORT_PortEventOutputWrite
                0x00000000        0x4 ./rzg/fsp/src/r_ioport/r_ioport.o
 .text.R_IOPORT_PinEventOutputWrite
                0x00000000        0x4 ./rzg/fsp/src/r_ioport/r_ioport.o
 .text.R_IOPORT_VersionGet
                0x00000000        0xc ./rzg/fsp/src/r_ioport/r_ioport.o
 .text.R_IOPORT_EthernetModeCfg
                0x00000000       0x24 ./rzg/fsp/src/r_ioport/r_ioport.o
 .text.R_IOPORT_PinsCfg
                0x00000000        0xc ./rzg/fsp/src/r_ioport/r_ioport.o
 .text.R_IOPORT_PinCfg
                0x00000000       0x78 ./rzg/fsp/src/r_ioport/r_ioport.o
 .rodata.g_ioport_on_ioport
                0x00000000       0x48 ./rzg/fsp/src/r_ioport/r_ioport.o
 .text          0x00000000        0x0 ./rzg/fsp/src/r_gtm/r_gtm.o
 .data          0x00000000        0x0 ./rzg/fsp/src/r_gtm/r_gtm.o
 .bss           0x00000000        0x0 ./rzg/fsp/src/r_gtm/r_gtm.o
 .text          0x00000000        0x0 ./rzg/fsp/src/bsp/mcu/all/bsp_clocks.o
 .data          0x00000000        0x0 ./rzg/fsp/src/bsp/mcu/all/bsp_clocks.o
 .bss           0x00000000        0x0 ./rzg/fsp/src/bsp/mcu/all/bsp_clocks.o
 .text          0x00000000        0x0 ./rzg/fsp/src/bsp/mcu/all/bsp_common.o
 .data          0x00000000        0x0 ./rzg/fsp/src/bsp/mcu/all/bsp_common.o
 .bss           0x00000000        0x0 ./rzg/fsp/src/bsp/mcu/all/bsp_common.o
 .text.R_BSP_VersionGet
                0x00000000        0xc ./rzg/fsp/src/bsp/mcu/all/bsp_common.o
 .text.R_FSP_VersionGet
                0x00000000        0xc ./rzg/fsp/src/bsp/mcu/all/bsp_common.o
 .text.bsp_init_internal
                0x00000000        0x4 ./rzg/fsp/src/bsp/mcu/all/bsp_common.o
 .rodata.g_bsp_version
                0x00000000        0x4 ./rzg/fsp/src/bsp/mcu/all/bsp_common.o
 .text          0x00000000        0x0 ./rzg/fsp/src/bsp/mcu/all/bsp_delay.o
 .data          0x00000000        0x0 ./rzg/fsp/src/bsp/mcu/all/bsp_delay.o
 .bss           0x00000000        0x0 ./rzg/fsp/src/bsp/mcu/all/bsp_delay.o
 .text.bsp_prv_software_delay_loop
                0x00000000        0xc ./rzg/fsp/src/bsp/mcu/all/bsp_delay.o
 .text.R_BSP_SoftwareDelay
                0x00000000       0x60 ./rzg/fsp/src/bsp/mcu/all/bsp_delay.o
 .debug_info    0x00000000      0x1b9 ./rzg/fsp/src/bsp/mcu/all/bsp_delay.o
 .debug_abbrev  0x00000000      0x111 ./rzg/fsp/src/bsp/mcu/all/bsp_delay.o
 .debug_loc     0x00000000      0x19a ./rzg/fsp/src/bsp/mcu/all/bsp_delay.o
 .debug_aranges
                0x00000000       0x28 ./rzg/fsp/src/bsp/mcu/all/bsp_delay.o
 .debug_ranges  0x00000000       0x18 ./rzg/fsp/src/bsp/mcu/all/bsp_delay.o
 .debug_line    0x00000000      0x1b1 ./rzg/fsp/src/bsp/mcu/all/bsp_delay.o
 .debug_str     0x00000000      0x306 ./rzg/fsp/src/bsp/mcu/all/bsp_delay.o
 .comment       0x00000000       0x27 ./rzg/fsp/src/bsp/mcu/all/bsp_delay.o
 .debug_frame   0x00000000       0x48 ./rzg/fsp/src/bsp/mcu/all/bsp_delay.o
 .ARM.attributes
                0x00000000       0x32 ./rzg/fsp/src/bsp/mcu/all/bsp_delay.o
 .text          0x00000000        0x0 ./rzg/fsp/src/bsp/mcu/all/bsp_group_irq.o
 .data          0x00000000        0x0 ./rzg/fsp/src/bsp/mcu/all/bsp_group_irq.o
 .bss           0x00000000        0x0 ./rzg/fsp/src/bsp/mcu/all/bsp_group_irq.o
 .text.R_BSP_GroupIrqWrite
                0x00000000        0x4 ./rzg/fsp/src/bsp/mcu/all/bsp_group_irq.o
 .debug_info    0x00000000      0x6b9 ./rzg/fsp/src/bsp/mcu/all/bsp_group_irq.o
 .debug_abbrev  0x00000000       0xd4 ./rzg/fsp/src/bsp/mcu/all/bsp_group_irq.o
 .debug_loc     0x00000000       0x25 ./rzg/fsp/src/bsp/mcu/all/bsp_group_irq.o
 .debug_aranges
                0x00000000       0x20 ./rzg/fsp/src/bsp/mcu/all/bsp_group_irq.o
 .debug_ranges  0x00000000       0x10 ./rzg/fsp/src/bsp/mcu/all/bsp_group_irq.o
 .debug_line    0x00000000       0xd3 ./rzg/fsp/src/bsp/mcu/all/bsp_group_irq.o
 .debug_str     0x00000000     0x1716 ./rzg/fsp/src/bsp/mcu/all/bsp_group_irq.o
 .comment       0x00000000       0x27 ./rzg/fsp/src/bsp/mcu/all/bsp_group_irq.o
 .debug_frame   0x00000000       0x20 ./rzg/fsp/src/bsp/mcu/all/bsp_group_irq.o
 .ARM.attributes
                0x00000000       0x32 ./rzg/fsp/src/bsp/mcu/all/bsp_group_irq.o
 .text          0x00000000        0x0 ./rzg/fsp/src/bsp/mcu/all/bsp_guard.o
 .data          0x00000000        0x0 ./rzg/fsp/src/bsp/mcu/all/bsp_guard.o
 .bss           0x00000000        0x0 ./rzg/fsp/src/bsp/mcu/all/bsp_guard.o
 .debug_info    0x00000000       0x6b ./rzg/fsp/src/bsp/mcu/all/bsp_guard.o
 .debug_abbrev  0x00000000       0x26 ./rzg/fsp/src/bsp/mcu/all/bsp_guard.o
 .debug_aranges
                0x00000000       0x18 ./rzg/fsp/src/bsp/mcu/all/bsp_guard.o
 .debug_line    0x00000000       0x47 ./rzg/fsp/src/bsp/mcu/all/bsp_guard.o
 .debug_str     0x00000000      0x1f3 ./rzg/fsp/src/bsp/mcu/all/bsp_guard.o
 .comment       0x00000000       0x27 ./rzg/fsp/src/bsp/mcu/all/bsp_guard.o
 .ARM.attributes
                0x00000000       0x32 ./rzg/fsp/src/bsp/mcu/all/bsp_guard.o
 .text          0x00000000        0x0 ./rzg/fsp/src/bsp/mcu/all/bsp_io.o
 .data          0x00000000        0x0 ./rzg/fsp/src/bsp/mcu/all/bsp_io.o
 .bss           0x00000000        0x0 ./rzg/fsp/src/bsp/mcu/all/bsp_io.o
 .text          0x00000000        0x0 ./rzg/fsp/src/bsp/mcu/all/bsp_irq.o
 .data          0x00000000        0x0 ./rzg/fsp/src/bsp/mcu/all/bsp_irq.o
 .bss           0x00000000        0x0 ./rzg/fsp/src/bsp/mcu/all/bsp_irq.o
 .text          0x00000000        0x0 ./rzg/fsp/src/bsp/mcu/all/bsp_irqs.o
 .data          0x00000000        0x0 ./rzg/fsp/src/bsp/mcu/all/bsp_irqs.o
 .bss           0x00000000        0x0 ./rzg/fsp/src/bsp/mcu/all/bsp_irqs.o
 .text          0x00000000        0x0 ./rzg/fsp/src/bsp/mcu/all/bsp_sbrk.o
 .data          0x00000000        0x0 ./rzg/fsp/src/bsp/mcu/all/bsp_sbrk.o
 .bss           0x00000000        0x0 ./rzg/fsp/src/bsp/mcu/all/bsp_sbrk.o
 .text          0x00000000        0x0 ./rzg/fsp/src/bsp/mcu/all/bsp_security.o
 .data          0x00000000        0x0 ./rzg/fsp/src/bsp/mcu/all/bsp_security.o
 .bss           0x00000000        0x0 ./rzg/fsp/src/bsp/mcu/all/bsp_security.o
 .rodata.gp_start_of_nonsecure_vector_table
                0x00000000        0x4 ./rzg/fsp/src/bsp/mcu/all/bsp_security.o
 .text          0x00000000        0x0 ./rzg/fsp/src/bsp/cmsis/Device/RENESAS/Source/startup.o
 .data          0x00000000        0x0 ./rzg/fsp/src/bsp/cmsis/Device/RENESAS/Source/startup.o
 .bss           0x00000000        0x0 ./rzg/fsp/src/bsp/cmsis/Device/RENESAS/Source/startup.o
 .text          0x00000000        0x0 ./rzg/fsp/src/bsp/cmsis/Device/RENESAS/Source/startups.o
 .data          0x00000000        0x0 ./rzg/fsp/src/bsp/cmsis/Device/RENESAS/Source/startups.o
 .bss           0x00000000        0x0 ./rzg/fsp/src/bsp/cmsis/Device/RENESAS/Source/startups.o
 .text          0x00000000        0x0 ./rzg/fsp/src/bsp/cmsis/Device/RENESAS/Source/system.o
 .data          0x00000000        0x0 ./rzg/fsp/src/bsp/cmsis/Device/RENESAS/Source/system.o
 .bss           0x00000000        0x0 ./rzg/fsp/src/bsp/cmsis/Device/RENESAS/Source/system.o
 .text.R_BSP_WarmStart
                0x00000000        0x4 ./rzg/fsp/src/bsp/cmsis/Device/RENESAS/Source/system.o
 .text          0x00000000        0x0 ./rzg/fsp/src/bsp/cmsis/Device/RENESAS/Source/systems.o
 .data          0x00000000        0x0 ./rzg/fsp/src/bsp/cmsis/Device/RENESAS/Source/systems.o
 .bss           0x00000000        0x0 ./rzg/fsp/src/bsp/cmsis/Device/RENESAS/Source/systems.o
 .text          0x00000000        0x0 ./rzg/board/rzg2l_smarc/board_init.o
 .data          0x00000000        0x0 ./rzg/board/rzg2l_smarc/board_init.o
 .bss           0x00000000        0x0 ./rzg/board/rzg2l_smarc/board_init.o
 .text          0x00000000        0x0 ./rzg/board/rzg2l_smarc/board_leds.o
 .data          0x00000000        0x0 ./rzg/board/rzg2l_smarc/board_leds.o
 .bss           0x00000000        0x0 ./rzg/board/rzg2l_smarc/board_leds.o
 .text          0x00000000        0x0 ./rzg/aws/amazon-freertos/freertos_kernel/portable/MemMang/heap_4.o
 .data          0x00000000        0x0 ./rzg/aws/amazon-freertos/freertos_kernel/portable/MemMang/heap_4.o
 .bss           0x00000000        0x0 ./rzg/aws/amazon-freertos/freertos_kernel/portable/MemMang/heap_4.o
 .text.xPortGetFreeHeapSize
                0x00000000        0xc ./rzg/aws/amazon-freertos/freertos_kernel/portable/MemMang/heap_4.o
 .text.xPortGetMinimumEverFreeHeapSize
                0x00000000        0xc ./rzg/aws/amazon-freertos/freertos_kernel/portable/MemMang/heap_4.o
 .text.vPortInitialiseBlocks
                0x00000000        0x4 ./rzg/aws/amazon-freertos/freertos_kernel/portable/MemMang/heap_4.o
 .text.vPortGetHeapStats
                0x00000000       0x84 ./rzg/aws/amazon-freertos/freertos_kernel/portable/MemMang/heap_4.o
 .text          0x00000000        0x0 ./rzg/aws/amazon-freertos/freertos_kernel/event_groups.o
 .data          0x00000000        0x0 ./rzg/aws/amazon-freertos/freertos_kernel/event_groups.o
 .bss           0x00000000        0x0 ./rzg/aws/amazon-freertos/freertos_kernel/event_groups.o
 .rodata.xEventGroupClearBits.part.0.str1.4
                0x00000000       0x62 ./rzg/aws/amazon-freertos/freertos_kernel/event_groups.o
 .text.xEventGroupClearBits.part.0
                0x00000000       0x1c ./rzg/aws/amazon-freertos/freertos_kernel/event_groups.o
 .rodata.xEventGroupCreateStatic.str1.4
                0x00000000       0x34 ./rzg/aws/amazon-freertos/freertos_kernel/event_groups.o
 .text.xEventGroupCreateStatic
                0x00000000       0x50 ./rzg/aws/amazon-freertos/freertos_kernel/event_groups.o
 .text.xEventGroupCreate
                0x00000000       0x1c ./rzg/aws/amazon-freertos/freertos_kernel/event_groups.o
 .rodata.xEventGroupWaitBits.str1.4
                0x00000000       0x9f ./rzg/aws/amazon-freertos/freertos_kernel/event_groups.o
 .text.xEventGroupWaitBits
                0x00000000      0x138 ./rzg/aws/amazon-freertos/freertos_kernel/event_groups.o
 .text.xEventGroupClearBits
                0x00000000       0x40 ./rzg/aws/amazon-freertos/freertos_kernel/event_groups.o
 .text.xEventGroupGetBitsFromISR
                0x00000000       0x14 ./rzg/aws/amazon-freertos/freertos_kernel/event_groups.o
 .rodata.xEventGroupSetBits.str1.4
                0x00000000       0x24 ./rzg/aws/amazon-freertos/freertos_kernel/event_groups.o
 .text.xEventGroupSetBits
                0x00000000       0x94 ./rzg/aws/amazon-freertos/freertos_kernel/event_groups.o
 .text.xEventGroupSync
                0x00000000       0xf4 ./rzg/aws/amazon-freertos/freertos_kernel/event_groups.o
 .rodata.vEventGroupDelete.str1.4
                0x00000000       0x66 ./rzg/aws/amazon-freertos/freertos_kernel/event_groups.o
 .text.vEventGroupDelete
                0x00000000       0x58 ./rzg/aws/amazon-freertos/freertos_kernel/event_groups.o
 .text.vEventGroupSetBitsCallback
                0x00000000        0x4 ./rzg/aws/amazon-freertos/freertos_kernel/event_groups.o
 .text.vEventGroupClearBitsCallback
                0x00000000       0x40 ./rzg/aws/amazon-freertos/freertos_kernel/event_groups.o
 .rodata.__func__.0
                0x00000000       0x12 ./rzg/aws/amazon-freertos/freertos_kernel/event_groups.o
 .rodata.__func__.1
                0x00000000       0x13 ./rzg/aws/amazon-freertos/freertos_kernel/event_groups.o
 .rodata.__func__.2
                0x00000000       0x15 ./rzg/aws/amazon-freertos/freertos_kernel/event_groups.o
 .rodata.__func__.3
                0x00000000       0x14 ./rzg/aws/amazon-freertos/freertos_kernel/event_groups.o
 .rodata.__func__.4
                0x00000000       0x10 ./rzg/aws/amazon-freertos/freertos_kernel/event_groups.o
 .rodata.__func__.5
                0x00000000       0x18 ./rzg/aws/amazon-freertos/freertos_kernel/event_groups.o
 .debug_info    0x00000000     0x10cb ./rzg/aws/amazon-freertos/freertos_kernel/event_groups.o
 .debug_abbrev  0x00000000      0x34e ./rzg/aws/amazon-freertos/freertos_kernel/event_groups.o
 .debug_loc     0x00000000     0x1310 ./rzg/aws/amazon-freertos/freertos_kernel/event_groups.o
 .debug_aranges
                0x00000000       0x70 ./rzg/aws/amazon-freertos/freertos_kernel/event_groups.o
 .debug_ranges  0x00000000      0x100 ./rzg/aws/amazon-freertos/freertos_kernel/event_groups.o
 .debug_line    0x00000000      0x866 ./rzg/aws/amazon-freertos/freertos_kernel/event_groups.o
 .debug_str     0x00000000      0x776 ./rzg/aws/amazon-freertos/freertos_kernel/event_groups.o
 .comment       0x00000000       0x27 ./rzg/aws/amazon-freertos/freertos_kernel/event_groups.o
 .debug_frame   0x00000000      0x164 ./rzg/aws/amazon-freertos/freertos_kernel/event_groups.o
 .ARM.attributes
                0x00000000       0x32 ./rzg/aws/amazon-freertos/freertos_kernel/event_groups.o
 .text          0x00000000        0x0 ./rzg/aws/amazon-freertos/freertos_kernel/list.o
 .data          0x00000000        0x0 ./rzg/aws/amazon-freertos/freertos_kernel/list.o
 .bss           0x00000000        0x0 ./rzg/aws/amazon-freertos/freertos_kernel/list.o
 .text          0x00000000        0x0 ./rzg/aws/amazon-freertos/freertos_kernel/queue.o
 .data          0x00000000        0x0 ./rzg/aws/amazon-freertos/freertos_kernel/queue.o
 .bss           0x00000000        0x0 ./rzg/aws/amazon-freertos/freertos_kernel/queue.o
 .rodata.xQueueGenericCreate.str1.4
                0x00000000       0x8e ./rzg/aws/amazon-freertos/freertos_kernel/queue.o
 .text.xQueueGenericCreate
                0x00000000       0x94 ./rzg/aws/amazon-freertos/freertos_kernel/queue.o
 .text.xQueuePeek
                0x00000000      0x160 ./rzg/aws/amazon-freertos/freertos_kernel/queue.o
 .rodata.xQueueReceiveFromISR.str1.4
                0x00000000       0x72 ./rzg/aws/amazon-freertos/freertos_kernel/queue.o
 .text.xQueueReceiveFromISR
                0x00000000       0xc4 ./rzg/aws/amazon-freertos/freertos_kernel/queue.o
 .rodata.xQueuePeekFromISR.str1.4
                0x00000000       0x19 ./rzg/aws/amazon-freertos/freertos_kernel/queue.o
 .text.xQueuePeekFromISR
                0x00000000       0x90 ./rzg/aws/amazon-freertos/freertos_kernel/queue.o
 .rodata.uxQueueMessagesWaiting.str1.4
                0x00000000        0x7 ./rzg/aws/amazon-freertos/freertos_kernel/queue.o
 .text.uxQueueMessagesWaiting
                0x00000000       0x30 ./rzg/aws/amazon-freertos/freertos_kernel/queue.o
 .text.uxQueueSpacesAvailable
                0x00000000       0x34 ./rzg/aws/amazon-freertos/freertos_kernel/queue.o
 .text.uxQueueMessagesWaitingFromISR
                0x00000000       0x24 ./rzg/aws/amazon-freertos/freertos_kernel/queue.o
 .text.xQueueIsQueueEmptyFromISR
                0x00000000       0x28 ./rzg/aws/amazon-freertos/freertos_kernel/queue.o
 .text.xQueueIsQueueFullFromISR
                0x00000000       0x2c ./rzg/aws/amazon-freertos/freertos_kernel/queue.o
 .text.pcQueueGetName
                0x00000000       0x28 ./rzg/aws/amazon-freertos/freertos_kernel/queue.o
 .text.vQueueUnregisterQueue
                0x00000000       0x34 ./rzg/aws/amazon-freertos/freertos_kernel/queue.o
 .rodata.__func__.0
                0x00000000       0x19 ./rzg/aws/amazon-freertos/freertos_kernel/queue.o
 .rodata.__func__.1
                0x00000000       0x1a ./rzg/aws/amazon-freertos/freertos_kernel/queue.o
 .rodata.__func__.3
                0x00000000       0x1e ./rzg/aws/amazon-freertos/freertos_kernel/queue.o
 .rodata.__func__.4
                0x00000000       0x17 ./rzg/aws/amazon-freertos/freertos_kernel/queue.o
 .rodata.__func__.5
                0x00000000       0x17 ./rzg/aws/amazon-freertos/freertos_kernel/queue.o
 .rodata.__func__.6
                0x00000000       0x12 ./rzg/aws/amazon-freertos/freertos_kernel/queue.o
 .rodata.__func__.7
                0x00000000       0x15 ./rzg/aws/amazon-freertos/freertos_kernel/queue.o
 .rodata.__func__.8
                0x00000000        0xb ./rzg/aws/amazon-freertos/freertos_kernel/queue.o
 .rodata.__func__.16
                0x00000000       0x14 ./rzg/aws/amazon-freertos/freertos_kernel/queue.o
 .text          0x00000000        0x0 ./rzg/aws/amazon-freertos/freertos_kernel/stream_buffer.o
 .data          0x00000000        0x0 ./rzg/aws/amazon-freertos/freertos_kernel/stream_buffer.o
 .bss           0x00000000        0x0 ./rzg/aws/amazon-freertos/freertos_kernel/stream_buffer.o
 .rodata.prvWriteBytesToBuffer.str1.4
                0x00000000       0xc1 ./rzg/aws/amazon-freertos/freertos_kernel/stream_buffer.o
 .text.prvWriteBytesToBuffer
                0x00000000       0x90 ./rzg/aws/amazon-freertos/freertos_kernel/stream_buffer.o
 .rodata.prvReadBytesFromBuffer.str1.4
                0x00000000       0x54 ./rzg/aws/amazon-freertos/freertos_kernel/stream_buffer.o
 .text.prvReadBytesFromBuffer
                0x00000000       0x84 ./rzg/aws/amazon-freertos/freertos_kernel/stream_buffer.o
 .rodata.prvInitialiseNewStreamBuffer.part.0.str1.4
                0x00000000       0x48 ./rzg/aws/amazon-freertos/freertos_kernel/stream_buffer.o
 .text.prvInitialiseNewStreamBuffer.part.0
                0x00000000       0x1c ./rzg/aws/amazon-freertos/freertos_kernel/stream_buffer.o
 .rodata.xStreamBufferGenericCreate.str1.4
                0x00000000       0x67 ./rzg/aws/amazon-freertos/freertos_kernel/stream_buffer.o
 .text.xStreamBufferGenericCreate
                0x00000000       0xa8 ./rzg/aws/amazon-freertos/freertos_kernel/stream_buffer.o
 .rodata.xStreamBufferGenericCreateStatic.str1.4
                0x00000000       0x56 ./rzg/aws/amazon-freertos/freertos_kernel/stream_buffer.o
 .text.xStreamBufferGenericCreateStatic
                0x00000000       0xcc ./rzg/aws/amazon-freertos/freertos_kernel/stream_buffer.o
 .rodata.vStreamBufferDelete.str1.4
                0x00000000        0xf ./rzg/aws/amazon-freertos/freertos_kernel/stream_buffer.o
 .text.vStreamBufferDelete
                0x00000000       0x38 ./rzg/aws/amazon-freertos/freertos_kernel/stream_buffer.o
 .text.xStreamBufferReset
                0x00000000       0x80 ./rzg/aws/amazon-freertos/freertos_kernel/stream_buffer.o
 .text.xStreamBufferSetTriggerLevel
                0x00000000       0x34 ./rzg/aws/amazon-freertos/freertos_kernel/stream_buffer.o
 .text.xStreamBufferSpacesAvailable
                0x00000000       0x34 ./rzg/aws/amazon-freertos/freertos_kernel/stream_buffer.o
 .text.xStreamBufferBytesAvailable
                0x00000000       0x30 ./rzg/aws/amazon-freertos/freertos_kernel/stream_buffer.o
 .rodata.xStreamBufferSend.str1.4
                0x00000000       0x62 ./rzg/aws/amazon-freertos/freertos_kernel/stream_buffer.o
 .text.xStreamBufferSend
                0x00000000      0x16c ./rzg/aws/amazon-freertos/freertos_kernel/stream_buffer.o
 .text.xStreamBufferSendFromISR
                0x00000000       0xd8 ./rzg/aws/amazon-freertos/freertos_kernel/stream_buffer.o
 .rodata.xStreamBufferReceive.str1.4
                0x00000000       0x41 ./rzg/aws/amazon-freertos/freertos_kernel/stream_buffer.o
 .text.xStreamBufferReceive
                0x00000000      0x134 ./rzg/aws/amazon-freertos/freertos_kernel/stream_buffer.o
 .rodata.xStreamBufferNextMessageLengthBytes.str1.4
                0x00000000       0x15 ./rzg/aws/amazon-freertos/freertos_kernel/stream_buffer.o
 .text.xStreamBufferNextMessageLengthBytes
                0x00000000       0x70 ./rzg/aws/amazon-freertos/freertos_kernel/stream_buffer.o
 .text.xStreamBufferReceiveFromISR
                0x00000000       0xd0 ./rzg/aws/amazon-freertos/freertos_kernel/stream_buffer.o
 .text.xStreamBufferIsEmpty
                0x00000000       0x2c ./rzg/aws/amazon-freertos/freertos_kernel/stream_buffer.o
 .text.xStreamBufferIsFull
                0x00000000       0x44 ./rzg/aws/amazon-freertos/freertos_kernel/stream_buffer.o
 .text.xStreamBufferSendCompletedFromISR
                0x00000000       0x60 ./rzg/aws/amazon-freertos/freertos_kernel/stream_buffer.o
 .text.xStreamBufferReceiveCompletedFromISR
                0x00000000       0x60 ./rzg/aws/amazon-freertos/freertos_kernel/stream_buffer.o
 .rodata.__func__.0
                0x00000000       0x25 ./rzg/aws/amazon-freertos/freertos_kernel/stream_buffer.o
 .rodata.__func__.1
                0x00000000       0x22 ./rzg/aws/amazon-freertos/freertos_kernel/stream_buffer.o
 .rodata.__func__.2
                0x00000000       0x14 ./rzg/aws/amazon-freertos/freertos_kernel/stream_buffer.o
 .rodata.__func__.3
                0x00000000       0x15 ./rzg/aws/amazon-freertos/freertos_kernel/stream_buffer.o
 .rodata.__func__.4
                0x00000000       0x1c ./rzg/aws/amazon-freertos/freertos_kernel/stream_buffer.o
 .rodata.__func__.5
                0x00000000       0x24 ./rzg/aws/amazon-freertos/freertos_kernel/stream_buffer.o
 .rodata.__func__.6
                0x00000000       0x17 ./rzg/aws/amazon-freertos/freertos_kernel/stream_buffer.o
 .rodata.__func__.7
                0x00000000       0x15 ./rzg/aws/amazon-freertos/freertos_kernel/stream_buffer.o
 .rodata.__func__.8
                0x00000000       0x19 ./rzg/aws/amazon-freertos/freertos_kernel/stream_buffer.o
 .rodata.__func__.9
                0x00000000       0x16 ./rzg/aws/amazon-freertos/freertos_kernel/stream_buffer.o
 .rodata.__func__.10
                0x00000000       0x12 ./rzg/aws/amazon-freertos/freertos_kernel/stream_buffer.o
 .rodata.__func__.11
                0x00000000       0x1c ./rzg/aws/amazon-freertos/freertos_kernel/stream_buffer.o
 .rodata.__func__.12
                0x00000000       0x1d ./rzg/aws/amazon-freertos/freertos_kernel/stream_buffer.o
 .rodata.__func__.13
                0x00000000       0x1d ./rzg/aws/amazon-freertos/freertos_kernel/stream_buffer.o
 .rodata.__func__.14
                0x00000000       0x13 ./rzg/aws/amazon-freertos/freertos_kernel/stream_buffer.o
 .rodata.__func__.15
                0x00000000       0x14 ./rzg/aws/amazon-freertos/freertos_kernel/stream_buffer.o
 .rodata.__func__.16
                0x00000000       0x21 ./rzg/aws/amazon-freertos/freertos_kernel/stream_buffer.o
 .rodata.__func__.17
                0x00000000       0x1d ./rzg/aws/amazon-freertos/freertos_kernel/stream_buffer.o
 .rodata.__func__.18
                0x00000000       0x1b ./rzg/aws/amazon-freertos/freertos_kernel/stream_buffer.o
 .debug_info    0x00000000     0x2563 ./rzg/aws/amazon-freertos/freertos_kernel/stream_buffer.o
 .debug_abbrev  0x00000000      0x42a ./rzg/aws/amazon-freertos/freertos_kernel/stream_buffer.o
 .debug_loc     0x00000000     0x2a0b ./rzg/aws/amazon-freertos/freertos_kernel/stream_buffer.o
 .debug_aranges
                0x00000000       0xb0 ./rzg/aws/amazon-freertos/freertos_kernel/stream_buffer.o
 .debug_ranges  0x00000000      0x210 ./rzg/aws/amazon-freertos/freertos_kernel/stream_buffer.o
 .debug_line    0x00000000     0x1190 ./rzg/aws/amazon-freertos/freertos_kernel/stream_buffer.o
 .debug_str     0x00000000      0x981 ./rzg/aws/amazon-freertos/freertos_kernel/stream_buffer.o
 .comment       0x00000000       0x27 ./rzg/aws/amazon-freertos/freertos_kernel/stream_buffer.o
 .debug_frame   0x00000000      0x2bc ./rzg/aws/amazon-freertos/freertos_kernel/stream_buffer.o
 .ARM.attributes
                0x00000000       0x32 ./rzg/aws/amazon-freertos/freertos_kernel/stream_buffer.o
 .text          0x00000000        0x0 ./rzg/aws/amazon-freertos/freertos_kernel/tasks.o
 .data          0x00000000        0x0 ./rzg/aws/amazon-freertos/freertos_kernel/tasks.o
 .bss           0x00000000        0x0 ./rzg/aws/amazon-freertos/freertos_kernel/tasks.o
 .text.prvTaskIsTaskSuspended.part.0
                0x00000000       0x1c ./rzg/aws/amazon-freertos/freertos_kernel/tasks.o
 .text.uxTaskPriorityGet
                0x00000000       0x28 ./rzg/aws/amazon-freertos/freertos_kernel/tasks.o
 .text.uxTaskPriorityGetFromISR
                0x00000000       0x28 ./rzg/aws/amazon-freertos/freertos_kernel/tasks.o
 .rodata.vTaskPrioritySet.str1.4
                0x00000000       0x18 ./rzg/aws/amazon-freertos/freertos_kernel/tasks.o
 .text.vTaskPrioritySet
                0x00000000      0x128 ./rzg/aws/amazon-freertos/freertos_kernel/tasks.o
 .rodata.vTaskResume.str1.4
                0x00000000        0xe ./rzg/aws/amazon-freertos/freertos_kernel/tasks.o
 .text.vTaskResume
                0x00000000       0x94 ./rzg/aws/amazon-freertos/freertos_kernel/tasks.o
 .text.xTaskResumeFromISR
                0x00000000       0xb8 ./rzg/aws/amazon-freertos/freertos_kernel/tasks.o
 .text.vTaskEndScheduler
                0x00000000       0x18 ./rzg/aws/amazon-freertos/freertos_kernel/tasks.o
 .text.xTaskGetTickCountFromISR
                0x00000000        0xc ./rzg/aws/amazon-freertos/freertos_kernel/tasks.o
 .text.uxTaskGetNumberOfTasks
                0x00000000        0xc ./rzg/aws/amazon-freertos/freertos_kernel/tasks.o
 .rodata.pcTaskGetName.str1.4
                0x00000000        0x6 ./rzg/aws/amazon-freertos/freertos_kernel/tasks.o
 .text.pcTaskGetName
                0x00000000       0x30 ./rzg/aws/amazon-freertos/freertos_kernel/tasks.o
 .rodata.xTaskDelayUntil.str1.4
                0x00000000       0x2c ./rzg/aws/amazon-freertos/freertos_kernel/tasks.o
 .text.xTaskDelayUntil
                0x00000000       0xa4 ./rzg/aws/amazon-freertos/freertos_kernel/tasks.o
 .text.xTaskCatchUpTicks
                0x00000000       0x40 ./rzg/aws/amazon-freertos/freertos_kernel/tasks.o
 .text.vTaskSuspend
                0x00000000       0xd4 ./rzg/aws/amazon-freertos/freertos_kernel/tasks.o
 .rodata.vTaskPlaceOnUnorderedEventList.str1.4
                0x00000000       0x1a ./rzg/aws/amazon-freertos/freertos_kernel/tasks.o
 .text.vTaskPlaceOnUnorderedEventList
                0x00000000       0x60 ./rzg/aws/amazon-freertos/freertos_kernel/tasks.o
 .rodata.vTaskRemoveFromUnorderedEventList.str1.4
                0x00000000       0x2d ./rzg/aws/amazon-freertos/freertos_kernel/tasks.o
 .text.vTaskRemoveFromUnorderedEventList
                0x00000000       0x90 ./rzg/aws/amazon-freertos/freertos_kernel/tasks.o
 .text.vTaskSetTimeOutState
                0x00000000       0x40 ./rzg/aws/amazon-freertos/freertos_kernel/tasks.o
 .rodata.vTaskSetThreadLocalStoragePointer.str1.4
                0x00000000       0x15 ./rzg/aws/amazon-freertos/freertos_kernel/tasks.o
 .text.vTaskSetThreadLocalStoragePointer
                0x00000000       0x40 ./rzg/aws/amazon-freertos/freertos_kernel/tasks.o
 .text.pvTaskGetThreadLocalStoragePointer
                0x00000000       0x24 ./rzg/aws/amazon-freertos/freertos_kernel/tasks.o
 .text.xTaskGetCurrentTaskHandle
                0x00000000        0xc ./rzg/aws/amazon-freertos/freertos_kernel/tasks.o
 .text.uxTaskResetEventItemValue
                0x00000000       0x18 ./rzg/aws/amazon-freertos/freertos_kernel/tasks.o
 .rodata.ulTaskGenericNotifyTake.str1.4
                0x00000000       0x12 ./rzg/aws/amazon-freertos/freertos_kernel/tasks.o
 .text.ulTaskGenericNotifyTake
                0x00000000       0x78 ./rzg/aws/amazon-freertos/freertos_kernel/tasks.o
 .text.xTaskGenericNotifyWait
                0x00000000       0x98 ./rzg/aws/amazon-freertos/freertos_kernel/tasks.o
 .rodata.xTaskGenericNotify.str1.4
                0x00000000       0x83 ./rzg/aws/amazon-freertos/freertos_kernel/tasks.o
 .text.xTaskGenericNotify
                0x00000000      0x104 ./rzg/aws/amazon-freertos/freertos_kernel/tasks.o
 .text.xTaskGenericNotifyFromISR
                0x00000000      0x13c ./rzg/aws/amazon-freertos/freertos_kernel/tasks.o
 .text.vTaskGenericNotifyGiveFromISR
                0x00000000       0xe0 ./rzg/aws/amazon-freertos/freertos_kernel/tasks.o
 .rodata.xTaskGenericNotifyStateClear.str1.4
                0x00000000       0x13 ./rzg/aws/amazon-freertos/freertos_kernel/tasks.o
 .text.xTaskGenericNotifyStateClear
                0x00000000       0x4c ./rzg/aws/amazon-freertos/freertos_kernel/tasks.o
 .text.ulTaskGenericNotifyValueClear
                0x00000000       0x30 ./rzg/aws/amazon-freertos/freertos_kernel/tasks.o
 .rodata.__func__.0
                0x00000000       0x1d ./rzg/aws/amazon-freertos/freertos_kernel/tasks.o
 .rodata.__func__.1
                0x00000000       0x1e ./rzg/aws/amazon-freertos/freertos_kernel/tasks.o
 .rodata.__func__.2
                0x00000000       0x1a ./rzg/aws/amazon-freertos/freertos_kernel/tasks.o
 .rodata.__func__.3
                0x00000000       0x13 ./rzg/aws/amazon-freertos/freertos_kernel/tasks.o
 .rodata.__func__.4
                0x00000000       0x17 ./rzg/aws/amazon-freertos/freertos_kernel/tasks.o
 .rodata.__func__.5
                0x00000000       0x18 ./rzg/aws/amazon-freertos/freertos_kernel/tasks.o
 .rodata.__func__.6
                0x00000000       0x22 ./rzg/aws/amazon-freertos/freertos_kernel/tasks.o
 .rodata.__func__.8
                0x00000000       0x15 ./rzg/aws/amazon-freertos/freertos_kernel/tasks.o
 .rodata.__func__.9
                0x00000000       0x22 ./rzg/aws/amazon-freertos/freertos_kernel/tasks.o
 .rodata.__func__.12
                0x00000000       0x1f ./rzg/aws/amazon-freertos/freertos_kernel/tasks.o
 .rodata.__func__.16
                0x00000000       0x12 ./rzg/aws/amazon-freertos/freertos_kernel/tasks.o
 .rodata.__func__.17
                0x00000000        0xe ./rzg/aws/amazon-freertos/freertos_kernel/tasks.o
 .rodata.__func__.20
                0x00000000       0x13 ./rzg/aws/amazon-freertos/freertos_kernel/tasks.o
 .rodata.__func__.21
                0x00000000       0x17 ./rzg/aws/amazon-freertos/freertos_kernel/tasks.o
 .rodata.__func__.22
                0x00000000        0xc ./rzg/aws/amazon-freertos/freertos_kernel/tasks.o
 .rodata.__func__.23
                0x00000000        0xd ./rzg/aws/amazon-freertos/freertos_kernel/tasks.o
 .rodata.__func__.24
                0x00000000       0x11 ./rzg/aws/amazon-freertos/freertos_kernel/tasks.o
 .rodata.__func__.26
                0x00000000       0x10 ./rzg/aws/amazon-freertos/freertos_kernel/tasks.o
 .text          0x00000000        0x0 ./rzg/aws/amazon-freertos/freertos_kernel/timers.o
 .data          0x00000000        0x0 ./rzg/aws/amazon-freertos/freertos_kernel/timers.o
 .bss           0x00000000        0x0 ./rzg/aws/amazon-freertos/freertos_kernel/timers.o
 .text.prvInitialiseNewTimer.part.0
                0x00000000       0x1c ./rzg/aws/amazon-freertos/freertos_kernel/timers.o
 .text.xTimerCreate
                0x00000000       0x50 ./rzg/aws/amazon-freertos/freertos_kernel/timers.o
 .rodata.xTimerCreateStatic.str1.4
                0x00000000       0x2a ./rzg/aws/amazon-freertos/freertos_kernel/timers.o
 .text.xTimerCreateStatic
                0x00000000       0x84 ./rzg/aws/amazon-freertos/freertos_kernel/timers.o
 .rodata.xTimerGetTimerDaemonTaskHandle.str1.4
                0x00000000       0x24 ./rzg/aws/amazon-freertos/freertos_kernel/timers.o
 .text.xTimerGetTimerDaemonTaskHandle
                0x00000000       0x28 ./rzg/aws/amazon-freertos/freertos_kernel/timers.o
 .text.xTimerGetPeriod
                0x00000000       0x24 ./rzg/aws/amazon-freertos/freertos_kernel/timers.o
 .text.vTimerSetReloadMode
                0x00000000       0x4c ./rzg/aws/amazon-freertos/freertos_kernel/timers.o
 .text.uxTimerGetReloadMode
                0x00000000       0x34 ./rzg/aws/amazon-freertos/freertos_kernel/timers.o
 .text.xTimerGetExpiryTime
                0x00000000       0x24 ./rzg/aws/amazon-freertos/freertos_kernel/timers.o
 .text.pcTimerGetName
                0x00000000       0x24 ./rzg/aws/amazon-freertos/freertos_kernel/timers.o
 .text.xTimerIsTimerActive
                0x00000000       0x34 ./rzg/aws/amazon-freertos/freertos_kernel/timers.o
 .text.pvTimerGetTimerID
                0x00000000       0x30 ./rzg/aws/amazon-freertos/freertos_kernel/timers.o
 .text.vTimerSetTimerID
                0x00000000       0x30 ./rzg/aws/amazon-freertos/freertos_kernel/timers.o
 .rodata.__func__.0
                0x00000000       0x11 ./rzg/aws/amazon-freertos/freertos_kernel/timers.o
 .rodata.__func__.1
                0x00000000       0x12 ./rzg/aws/amazon-freertos/freertos_kernel/timers.o
 .rodata.__func__.2
                0x00000000       0x14 ./rzg/aws/amazon-freertos/freertos_kernel/timers.o
 .rodata.__func__.3
                0x00000000        0xf ./rzg/aws/amazon-freertos/freertos_kernel/timers.o
 .rodata.__func__.4
                0x00000000       0x14 ./rzg/aws/amazon-freertos/freertos_kernel/timers.o
 .rodata.__func__.5
                0x00000000       0x15 ./rzg/aws/amazon-freertos/freertos_kernel/timers.o
 .rodata.__func__.6
                0x00000000       0x14 ./rzg/aws/amazon-freertos/freertos_kernel/timers.o
 .rodata.__func__.7
                0x00000000       0x10 ./rzg/aws/amazon-freertos/freertos_kernel/timers.o
 .rodata.__func__.8
                0x00000000       0x1f ./rzg/aws/amazon-freertos/freertos_kernel/timers.o
 .rodata.__func__.10
                0x00000000       0x13 ./rzg/aws/amazon-freertos/freertos_kernel/timers.o
 .rodata.__func__.11
                0x00000000       0x16 ./rzg/aws/amazon-freertos/freertos_kernel/timers.o
 .data          0x00000000        0x0 /usr/lib/gcc/arm-none-eabi/12.2.1/../../../arm-none-eabi/lib/thumb/v8-m.main/nofp/libc_nano.a(lib_a-assert.o)
 .bss           0x00000000        0x0 /usr/lib/gcc/arm-none-eabi/12.2.1/../../../arm-none-eabi/lib/thumb/v8-m.main/nofp/libc_nano.a(lib_a-assert.o)
 .data          0x00000000        0x0 /usr/lib/gcc/arm-none-eabi/12.2.1/../../../arm-none-eabi/lib/thumb/v8-m.main/nofp/libc_nano.a(lib_a-errno.o)
 .bss           0x00000000        0x0 /usr/lib/gcc/arm-none-eabi/12.2.1/../../../arm-none-eabi/lib/thumb/v8-m.main/nofp/libc_nano.a(lib_a-errno.o)
 .data          0x00000000        0x0 /usr/lib/gcc/arm-none-eabi/12.2.1/../../../arm-none-eabi/lib/thumb/v8-m.main/nofp/libc_nano.a(lib_a-fprintf.o)
 .bss           0x00000000        0x0 /usr/lib/gcc/arm-none-eabi/12.2.1/../../../arm-none-eabi/lib/thumb/v8-m.main/nofp/libc_nano.a(lib_a-fprintf.o)
 .text          0x00000000        0x0 /usr/lib/gcc/arm-none-eabi/12.2.1/../../../arm-none-eabi/lib/thumb/v8-m.main/nofp/libc_nano.a(lib_a-impure.o)
 .bss           0x00000000        0x0 /usr/lib/gcc/arm-none-eabi/12.2.1/../../../arm-none-eabi/lib/thumb/v8-m.main/nofp/libc_nano.a(lib_a-impure.o)
 .data          0x00000000        0x0 /usr/lib/gcc/arm-none-eabi/12.2.1/../../../arm-none-eabi/lib/thumb/v8-m.main/nofp/libc_nano.a(lib_a-memcpy.o)
 .bss           0x00000000        0x0 /usr/lib/gcc/arm-none-eabi/12.2.1/../../../arm-none-eabi/lib/thumb/v8-m.main/nofp/libc_nano.a(lib_a-memcpy.o)
 .data          0x00000000        0x0 /usr/lib/gcc/arm-none-eabi/12.2.1/../../../arm-none-eabi/lib/thumb/v8-m.main/nofp/libc_nano.a(lib_a-memset.o)
 .bss           0x00000000        0x0 /usr/lib/gcc/arm-none-eabi/12.2.1/../../../arm-none-eabi/lib/thumb/v8-m.main/nofp/libc_nano.a(lib_a-memset.o)
 .data          0x00000000        0x0 /usr/lib/gcc/arm-none-eabi/12.2.1/../../../arm-none-eabi/lib/thumb/v8-m.main/nofp/libc_nano.a(lib_a-nano-vfprintf.o)
 .bss           0x00000000        0x0 /usr/lib/gcc/arm-none-eabi/12.2.1/../../../arm-none-eabi/lib/thumb/v8-m.main/nofp/libc_nano.a(lib_a-nano-vfprintf.o)
 .data          0x00000000        0x0 /usr/lib/gcc/arm-none-eabi/12.2.1/../../../arm-none-eabi/lib/thumb/v8-m.main/nofp/libc_nano.a(lib_a-nano-vfprintf_i.o)
 .bss           0x00000000        0x0 /usr/lib/gcc/arm-none-eabi/12.2.1/../../../arm-none-eabi/lib/thumb/v8-m.main/nofp/libc_nano.a(lib_a-nano-vfprintf_i.o)
 .data          0x00000000        0x0 /usr/lib/gcc/arm-none-eabi/12.2.1/../../../arm-none-eabi/lib/thumb/v8-m.main/nofp/libc_nano.a(lib_a-strcmp.o)
 .bss           0x00000000        0x0 /usr/lib/gcc/arm-none-eabi/12.2.1/../../../arm-none-eabi/lib/thumb/v8-m.main/nofp/libc_nano.a(lib_a-strcmp.o)
 .data          0x00000000        0x0 /usr/lib/gcc/arm-none-eabi/12.2.1/../../../arm-none-eabi/lib/thumb/v8-m.main/nofp/libc_nano.a(lib_a-strncmp.o)
 .bss           0x00000000        0x0 /usr/lib/gcc/arm-none-eabi/12.2.1/../../../arm-none-eabi/lib/thumb/v8-m.main/nofp/libc_nano.a(lib_a-strncmp.o)
 .data          0x00000000        0x0 /usr/lib/gcc/arm-none-eabi/12.2.1/../../../arm-none-eabi/lib/thumb/v8-m.main/nofp/libc_nano.a(lib_a-strncpy.o)
 .bss           0x00000000        0x0 /usr/lib/gcc/arm-none-eabi/12.2.1/../../../arm-none-eabi/lib/thumb/v8-m.main/nofp/libc_nano.a(lib_a-strncpy.o)
 .data          0x00000000        0x0 /usr/lib/gcc/arm-none-eabi/12.2.1/../../../arm-none-eabi/lib/thumb/v8-m.main/nofp/libc_nano.a(lib_a-wbuf.o)
 .bss           0x00000000        0x0 /usr/lib/gcc/arm-none-eabi/12.2.1/../../../arm-none-eabi/lib/thumb/v8-m.main/nofp/libc_nano.a(lib_a-wbuf.o)
 .data          0x00000000        0x0 /usr/lib/gcc/arm-none-eabi/12.2.1/../../../arm-none-eabi/lib/thumb/v8-m.main/nofp/libc_nano.a(lib_a-wsetup.o)
 .bss           0x00000000        0x0 /usr/lib/gcc/arm-none-eabi/12.2.1/../../../arm-none-eabi/lib/thumb/v8-m.main/nofp/libc_nano.a(lib_a-wsetup.o)
 .data          0x00000000        0x0 /usr/lib/gcc/arm-none-eabi/12.2.1/../../../arm-none-eabi/lib/thumb/v8-m.main/nofp/libc_nano.a(lib_a-abort.o)
 .bss           0x00000000        0x0 /usr/lib/gcc/arm-none-eabi/12.2.1/../../../arm-none-eabi/lib/thumb/v8-m.main/nofp/libc_nano.a(lib_a-abort.o)
 .data          0x00000000        0x0 /usr/lib/gcc/arm-none-eabi/12.2.1/../../../arm-none-eabi/lib/thumb/v8-m.main/nofp/libc_nano.a(lib_a-fflush.o)
 .bss           0x00000000        0x0 /usr/lib/gcc/arm-none-eabi/12.2.1/../../../arm-none-eabi/lib/thumb/v8-m.main/nofp/libc_nano.a(lib_a-fflush.o)
 .data          0x00000000        0x0 /usr/lib/gcc/arm-none-eabi/12.2.1/../../../arm-none-eabi/lib/thumb/v8-m.main/nofp/libc_nano.a(lib_a-findfp.o)
 .bss           0x00000000        0x0 /usr/lib/gcc/arm-none-eabi/12.2.1/../../../arm-none-eabi/lib/thumb/v8-m.main/nofp/libc_nano.a(lib_a-findfp.o)
 .data          0x00000000        0x0 /usr/lib/gcc/arm-none-eabi/12.2.1/../../../arm-none-eabi/lib/thumb/v8-m.main/nofp/libc_nano.a(lib_a-fvwrite.o)
 .bss           0x00000000        0x0 /usr/lib/gcc/arm-none-eabi/12.2.1/../../../arm-none-eabi/lib/thumb/v8-m.main/nofp/libc_nano.a(lib_a-fvwrite.o)
 .data          0x00000000        0x0 /usr/lib/gcc/arm-none-eabi/12.2.1/../../../arm-none-eabi/lib/thumb/v8-m.main/nofp/libc_nano.a(lib_a-fwalk.o)
 .bss           0x00000000        0x0 /usr/lib/gcc/arm-none-eabi/12.2.1/../../../arm-none-eabi/lib/thumb/v8-m.main/nofp/libc_nano.a(lib_a-fwalk.o)
 .data          0x00000000        0x0 /usr/lib/gcc/arm-none-eabi/12.2.1/../../../arm-none-eabi/lib/thumb/v8-m.main/nofp/libc_nano.a(lib_a-makebuf.o)
 .bss           0x00000000        0x0 /usr/lib/gcc/arm-none-eabi/12.2.1/../../../arm-none-eabi/lib/thumb/v8-m.main/nofp/libc_nano.a(lib_a-makebuf.o)
 .data          0x00000000        0x0 /usr/lib/gcc/arm-none-eabi/12.2.1/../../../arm-none-eabi/lib/thumb/v8-m.main/nofp/libc_nano.a(lib_a-memchr-stub.o)
 .bss           0x00000000        0x0 /usr/lib/gcc/arm-none-eabi/12.2.1/../../../arm-none-eabi/lib/thumb/v8-m.main/nofp/libc_nano.a(lib_a-memchr-stub.o)
 .data          0x00000000        0x0 /usr/lib/gcc/arm-none-eabi/12.2.1/../../../arm-none-eabi/lib/thumb/v8-m.main/nofp/libc_nano.a(lib_a-memmove.o)
 .bss           0x00000000        0x0 /usr/lib/gcc/arm-none-eabi/12.2.1/../../../arm-none-eabi/lib/thumb/v8-m.main/nofp/libc_nano.a(lib_a-memmove.o)
 .data          0x00000000        0x0 /usr/lib/gcc/arm-none-eabi/12.2.1/../../../arm-none-eabi/lib/thumb/v8-m.main/nofp/libc_nano.a(lib_a-nano-freer.o)
 .bss           0x00000000        0x0 /usr/lib/gcc/arm-none-eabi/12.2.1/../../../arm-none-eabi/lib/thumb/v8-m.main/nofp/libc_nano.a(lib_a-nano-freer.o)
 .data          0x00000000        0x0 /usr/lib/gcc/arm-none-eabi/12.2.1/../../../arm-none-eabi/lib/thumb/v8-m.main/nofp/libc_nano.a(lib_a-nano-mallocr.o)
 .data          0x00000000        0x0 /usr/lib/gcc/arm-none-eabi/12.2.1/../../../arm-none-eabi/lib/thumb/v8-m.main/nofp/libc_nano.a(lib_a-nano-reallocr.o)
 .bss           0x00000000        0x0 /usr/lib/gcc/arm-none-eabi/12.2.1/../../../arm-none-eabi/lib/thumb/v8-m.main/nofp/libc_nano.a(lib_a-nano-reallocr.o)
 .data          0x00000000        0x0 /usr/lib/gcc/arm-none-eabi/12.2.1/../../../arm-none-eabi/lib/thumb/v8-m.main/nofp/libc_nano.a(lib_a-sbrkr.o)
 .bss           0x00000000        0x0 /usr/lib/gcc/arm-none-eabi/12.2.1/../../../arm-none-eabi/lib/thumb/v8-m.main/nofp/libc_nano.a(lib_a-sbrkr.o)
 .data          0x00000000        0x0 /usr/lib/gcc/arm-none-eabi/12.2.1/../../../arm-none-eabi/lib/thumb/v8-m.main/nofp/libc_nano.a(lib_a-signal.o)
 .bss           0x00000000        0x0 /usr/lib/gcc/arm-none-eabi/12.2.1/../../../arm-none-eabi/lib/thumb/v8-m.main/nofp/libc_nano.a(lib_a-signal.o)
 .data          0x00000000        0x0 /usr/lib/gcc/arm-none-eabi/12.2.1/../../../arm-none-eabi/lib/thumb/v8-m.main/nofp/libc_nano.a(lib_a-signalr.o)
 .bss           0x00000000        0x0 /usr/lib/gcc/arm-none-eabi/12.2.1/../../../arm-none-eabi/lib/thumb/v8-m.main/nofp/libc_nano.a(lib_a-signalr.o)
 .data          0x00000000        0x0 /usr/lib/gcc/arm-none-eabi/12.2.1/../../../arm-none-eabi/lib/thumb/v8-m.main/nofp/libc_nano.a(lib_a-stdio.o)
 .bss           0x00000000        0x0 /usr/lib/gcc/arm-none-eabi/12.2.1/../../../arm-none-eabi/lib/thumb/v8-m.main/nofp/libc_nano.a(lib_a-stdio.o)
 .data          0x00000000        0x0 /usr/lib/gcc/arm-none-eabi/12.2.1/../../../arm-none-eabi/lib/thumb/v8-m.main/nofp/libc_nano.a(lib_a-writer.o)
 .bss           0x00000000        0x0 /usr/lib/gcc/arm-none-eabi/12.2.1/../../../arm-none-eabi/lib/thumb/v8-m.main/nofp/libc_nano.a(lib_a-writer.o)
 .data          0x00000000        0x0 /usr/lib/gcc/arm-none-eabi/12.2.1/../../../arm-none-eabi/lib/thumb/v8-m.main/nofp/libc_nano.a(lib_a-closer.o)
 .bss           0x00000000        0x0 /usr/lib/gcc/arm-none-eabi/12.2.1/../../../arm-none-eabi/lib/thumb/v8-m.main/nofp/libc_nano.a(lib_a-closer.o)
 .data          0x00000000        0x0 /usr/lib/gcc/arm-none-eabi/12.2.1/../../../arm-none-eabi/lib/thumb/v8-m.main/nofp/libc_nano.a(lib_a-fstatr.o)
 .bss           0x00000000        0x0 /usr/lib/gcc/arm-none-eabi/12.2.1/../../../arm-none-eabi/lib/thumb/v8-m.main/nofp/libc_nano.a(lib_a-fstatr.o)
 .data          0x00000000        0x0 /usr/lib/gcc/arm-none-eabi/12.2.1/../../../arm-none-eabi/lib/thumb/v8-m.main/nofp/libc_nano.a(lib_a-isattyr.o)
 .bss           0x00000000        0x0 /usr/lib/gcc/arm-none-eabi/12.2.1/../../../arm-none-eabi/lib/thumb/v8-m.main/nofp/libc_nano.a(lib_a-isattyr.o)
 .data          0x00000000        0x0 /usr/lib/gcc/arm-none-eabi/12.2.1/../../../arm-none-eabi/lib/thumb/v8-m.main/nofp/libc_nano.a(lib_a-lseekr.o)
 .bss           0x00000000        0x0 /usr/lib/gcc/arm-none-eabi/12.2.1/../../../arm-none-eabi/lib/thumb/v8-m.main/nofp/libc_nano.a(lib_a-lseekr.o)
 .data          0x00000000        0x0 /usr/lib/gcc/arm-none-eabi/12.2.1/../../../arm-none-eabi/lib/thumb/v8-m.main/nofp/libc_nano.a(lib_a-mlock.o)
 .bss           0x00000000        0x0 /usr/lib/gcc/arm-none-eabi/12.2.1/../../../arm-none-eabi/lib/thumb/v8-m.main/nofp/libc_nano.a(lib_a-mlock.o)
 .data          0x00000000        0x0 /usr/lib/gcc/arm-none-eabi/12.2.1/../../../arm-none-eabi/lib/thumb/v8-m.main/nofp/libc_nano.a(lib_a-nano-msizer.o)
 .bss           0x00000000        0x0 /usr/lib/gcc/arm-none-eabi/12.2.1/../../../arm-none-eabi/lib/thumb/v8-m.main/nofp/libc_nano.a(lib_a-nano-msizer.o)
 .data          0x00000000        0x0 /usr/lib/gcc/arm-none-eabi/12.2.1/../../../arm-none-eabi/lib/thumb/v8-m.main/nofp/libc_nano.a(lib_a-readr.o)
 .bss           0x00000000        0x0 /usr/lib/gcc/arm-none-eabi/12.2.1/../../../arm-none-eabi/lib/thumb/v8-m.main/nofp/libc_nano.a(lib_a-readr.o)
 .text          0x00000000      0x114 /usr/lib/gcc/arm-none-eabi/12.2.1/../../../arm-none-eabi/lib/thumb/v8-m.main/nofp/libc_nano.a(lib_a-reent.o)
 .data          0x00000000        0x0 /usr/lib/gcc/arm-none-eabi/12.2.1/../../../arm-none-eabi/lib/thumb/v8-m.main/nofp/libc_nano.a(lib_a-reent.o)
 .data          0x00000000        0x0 /usr/lib/gcc/arm-none-eabi/12.2.1/../../../arm-none-eabi/lib/thumb/v8-m.main/nofp/libnosys.a(close.o)
 .bss           0x00000000        0x0 /usr/lib/gcc/arm-none-eabi/12.2.1/../../../arm-none-eabi/lib/thumb/v8-m.main/nofp/libnosys.a(close.o)
 .data          0x00000000        0x0 /usr/lib/gcc/arm-none-eabi/12.2.1/../../../arm-none-eabi/lib/thumb/v8-m.main/nofp/libnosys.a(fstat.o)
 .bss           0x00000000        0x0 /usr/lib/gcc/arm-none-eabi/12.2.1/../../../arm-none-eabi/lib/thumb/v8-m.main/nofp/libnosys.a(fstat.o)
 .data          0x00000000        0x0 /usr/lib/gcc/arm-none-eabi/12.2.1/../../../arm-none-eabi/lib/thumb/v8-m.main/nofp/libnosys.a(getpid.o)
 .bss           0x00000000        0x0 /usr/lib/gcc/arm-none-eabi/12.2.1/../../../arm-none-eabi/lib/thumb/v8-m.main/nofp/libnosys.a(getpid.o)
 .data          0x00000000        0x0 /usr/lib/gcc/arm-none-eabi/12.2.1/../../../arm-none-eabi/lib/thumb/v8-m.main/nofp/libnosys.a(isatty.o)
 .bss           0x00000000        0x0 /usr/lib/gcc/arm-none-eabi/12.2.1/../../../arm-none-eabi/lib/thumb/v8-m.main/nofp/libnosys.a(isatty.o)
 .data          0x00000000        0x0 /usr/lib/gcc/arm-none-eabi/12.2.1/../../../arm-none-eabi/lib/thumb/v8-m.main/nofp/libnosys.a(kill.o)
 .bss           0x00000000        0x0 /usr/lib/gcc/arm-none-eabi/12.2.1/../../../arm-none-eabi/lib/thumb/v8-m.main/nofp/libnosys.a(kill.o)
 .data          0x00000000        0x0 /usr/lib/gcc/arm-none-eabi/12.2.1/../../../arm-none-eabi/lib/thumb/v8-m.main/nofp/libnosys.a(lseek.o)
 .bss           0x00000000        0x0 /usr/lib/gcc/arm-none-eabi/12.2.1/../../../arm-none-eabi/lib/thumb/v8-m.main/nofp/libnosys.a(lseek.o)
 .data          0x00000000        0x0 /usr/lib/gcc/arm-none-eabi/12.2.1/../../../arm-none-eabi/lib/thumb/v8-m.main/nofp/libnosys.a(read.o)
 .bss           0x00000000        0x0 /usr/lib/gcc/arm-none-eabi/12.2.1/../../../arm-none-eabi/lib/thumb/v8-m.main/nofp/libnosys.a(read.o)
 .data          0x00000000        0x0 /usr/lib/gcc/arm-none-eabi/12.2.1/../../../arm-none-eabi/lib/thumb/v8-m.main/nofp/libnosys.a(write.o)
 .bss           0x00000000        0x0 /usr/lib/gcc/arm-none-eabi/12.2.1/../../../arm-none-eabi/lib/thumb/v8-m.main/nofp/libnosys.a(write.o)
 .data          0x00000000        0x0 /usr/lib/gcc/arm-none-eabi/12.2.1/../../../arm-none-eabi/lib/thumb/v8-m.main/nofp/libnosys.a(_exit.o)
 .bss           0x00000000        0x0 /usr/lib/gcc/arm-none-eabi/12.2.1/../../../arm-none-eabi/lib/thumb/v8-m.main/nofp/libnosys.a(_exit.o)
 .data          0x00000000        0x0 /usr/lib/gcc/arm-none-eabi/12.2.1/thumb/v8-m.main/nofp/libgcc.a(_arm_addsubdf3.o)
 .bss           0x00000000        0x0 /usr/lib/gcc/arm-none-eabi/12.2.1/thumb/v8-m.main/nofp/libgcc.a(_arm_addsubdf3.o)
 .data          0x00000000        0x0 /usr/lib/gcc/arm-none-eabi/12.2.1/thumb/v8-m.main/nofp/libgcc.a(_arm_cmpdf2.o)
 .bss           0x00000000        0x0 /usr/lib/gcc/arm-none-eabi/12.2.1/thumb/v8-m.main/nofp/libgcc.a(_arm_cmpdf2.o)
 .text          0x00000000       0xa0 /usr/lib/gcc/arm-none-eabi/12.2.1/thumb/v8-m.main/nofp/libgcc.a(_aeabi_ldivmod.o)
 .data          0x00000000        0x0 /usr/lib/gcc/arm-none-eabi/12.2.1/thumb/v8-m.main/nofp/libgcc.a(_aeabi_ldivmod.o)
 .bss           0x00000000        0x0 /usr/lib/gcc/arm-none-eabi/12.2.1/thumb/v8-m.main/nofp/libgcc.a(_aeabi_ldivmod.o)
 .debug_line    0x00000000       0x6c /usr/lib/gcc/arm-none-eabi/12.2.1/thumb/v8-m.main/nofp/libgcc.a(_aeabi_ldivmod.o)
 .debug_line_str
                0x00000000       0x98 /usr/lib/gcc/arm-none-eabi/12.2.1/thumb/v8-m.main/nofp/libgcc.a(_aeabi_ldivmod.o)
 .debug_info    0x00000000       0x25 /usr/lib/gcc/arm-none-eabi/12.2.1/thumb/v8-m.main/nofp/libgcc.a(_aeabi_ldivmod.o)
 .debug_abbrev  0x00000000       0x14 /usr/lib/gcc/arm-none-eabi/12.2.1/thumb/v8-m.main/nofp/libgcc.a(_aeabi_ldivmod.o)
 .debug_aranges
                0x00000000       0x20 /usr/lib/gcc/arm-none-eabi/12.2.1/thumb/v8-m.main/nofp/libgcc.a(_aeabi_ldivmod.o)
 .debug_str     0x00000000       0xa4 /usr/lib/gcc/arm-none-eabi/12.2.1/thumb/v8-m.main/nofp/libgcc.a(_aeabi_ldivmod.o)
 .debug_frame   0x00000000       0x44 /usr/lib/gcc/arm-none-eabi/12.2.1/thumb/v8-m.main/nofp/libgcc.a(_aeabi_ldivmod.o)
 .ARM.attributes
                0x00000000       0x22 /usr/lib/gcc/arm-none-eabi/12.2.1/thumb/v8-m.main/nofp/libgcc.a(_aeabi_ldivmod.o)
 .data          0x00000000        0x0 /usr/lib/gcc/arm-none-eabi/12.2.1/thumb/v8-m.main/nofp/libgcc.a(_fixdfdi.o)
 .bss           0x00000000        0x0 /usr/lib/gcc/arm-none-eabi/12.2.1/thumb/v8-m.main/nofp/libgcc.a(_fixdfdi.o)
 .data          0x00000000        0x0 /usr/lib/gcc/arm-none-eabi/12.2.1/thumb/v8-m.main/nofp/libgcc.a(_fixunsdfdi.o)
 .bss           0x00000000        0x0 /usr/lib/gcc/arm-none-eabi/12.2.1/thumb/v8-m.main/nofp/libgcc.a(_fixunsdfdi.o)
 .text          0x00000000      0x2ec /usr/lib/gcc/arm-none-eabi/12.2.1/thumb/v8-m.main/nofp/libgcc.a(_udivmoddi4.o)
 .data          0x00000000        0x0 /usr/lib/gcc/arm-none-eabi/12.2.1/thumb/v8-m.main/nofp/libgcc.a(_udivmoddi4.o)
 .bss           0x00000000        0x0 /usr/lib/gcc/arm-none-eabi/12.2.1/thumb/v8-m.main/nofp/libgcc.a(_udivmoddi4.o)
 .ARM.extab     0x00000000        0x0 /usr/lib/gcc/arm-none-eabi/12.2.1/thumb/v8-m.main/nofp/libgcc.a(_udivmoddi4.o)
 .ARM.exidx     0x00000000        0x8 /usr/lib/gcc/arm-none-eabi/12.2.1/thumb/v8-m.main/nofp/libgcc.a(_udivmoddi4.o)
 .debug_info    0x00000000      0x6ef /usr/lib/gcc/arm-none-eabi/12.2.1/thumb/v8-m.main/nofp/libgcc.a(_udivmoddi4.o)
 .debug_abbrev  0x00000000      0x16a /usr/lib/gcc/arm-none-eabi/12.2.1/thumb/v8-m.main/nofp/libgcc.a(_udivmoddi4.o)
 .debug_loclists
                0x00000000      0x958 /usr/lib/gcc/arm-none-eabi/12.2.1/thumb/v8-m.main/nofp/libgcc.a(_udivmoddi4.o)
 .debug_aranges
                0x00000000       0x20 /usr/lib/gcc/arm-none-eabi/12.2.1/thumb/v8-m.main/nofp/libgcc.a(_udivmoddi4.o)
 .debug_rnglists
                0x00000000       0x7a /usr/lib/gcc/arm-none-eabi/12.2.1/thumb/v8-m.main/nofp/libgcc.a(_udivmoddi4.o)
 .debug_line    0x00000000      0x59d /usr/lib/gcc/arm-none-eabi/12.2.1/thumb/v8-m.main/nofp/libgcc.a(_udivmoddi4.o)
 .debug_str     0x00000000      0x678 /usr/lib/gcc/arm-none-eabi/12.2.1/thumb/v8-m.main/nofp/libgcc.a(_udivmoddi4.o)
 .comment       0x00000000       0x27 /usr/lib/gcc/arm-none-eabi/12.2.1/thumb/v8-m.main/nofp/libgcc.a(_udivmoddi4.o)
 .debug_frame   0x00000000       0x38 /usr/lib/gcc/arm-none-eabi/12.2.1/thumb/v8-m.main/nofp/libgcc.a(_udivmoddi4.o)
 .ARM.attributes
                0x00000000       0x32 /usr/lib/gcc/arm-none-eabi/12.2.1/thumb/v8-m.main/nofp/libgcc.a(_udivmoddi4.o)
 .data          0x00000000        0x0 /usr/lib/gcc/arm-none-eabi/12.2.1/thumb/v8-m.main/nofp/libgcc.a(_arm_muldf3.o)
 .bss           0x00000000        0x0 /usr/lib/gcc/arm-none-eabi/12.2.1/thumb/v8-m.main/nofp/libgcc.a(_arm_muldf3.o)
 .text          0x00000000        0x4 /usr/lib/gcc/arm-none-eabi/12.2.1/thumb/v8-m.main/nofp/libgcc.a(_dvmd_tls.o)
 .data          0x00000000        0x0 /usr/lib/gcc/arm-none-eabi/12.2.1/thumb/v8-m.main/nofp/libgcc.a(_dvmd_tls.o)
 .bss           0x00000000        0x0 /usr/lib/gcc/arm-none-eabi/12.2.1/thumb/v8-m.main/nofp/libgcc.a(_dvmd_tls.o)
 .debug_line    0x00000000       0x4a /usr/lib/gcc/arm-none-eabi/12.2.1/thumb/v8-m.main/nofp/libgcc.a(_dvmd_tls.o)
 .debug_line_str
                0x00000000       0x9c /usr/lib/gcc/arm-none-eabi/12.2.1/thumb/v8-m.main/nofp/libgcc.a(_dvmd_tls.o)
 .debug_info    0x00000000       0x39 /usr/lib/gcc/arm-none-eabi/12.2.1/thumb/v8-m.main/nofp/libgcc.a(_dvmd_tls.o)
 .debug_abbrev  0x00000000       0x1f /usr/lib/gcc/arm-none-eabi/12.2.1/thumb/v8-m.main/nofp/libgcc.a(_dvmd_tls.o)
 .debug_aranges
                0x00000000       0x20 /usr/lib/gcc/arm-none-eabi/12.2.1/thumb/v8-m.main/nofp/libgcc.a(_dvmd_tls.o)
 .debug_str     0x00000000       0xc4 /usr/lib/gcc/arm-none-eabi/12.2.1/thumb/v8-m.main/nofp/libgcc.a(_dvmd_tls.o)
 .ARM.attributes
                0x00000000       0x22 /usr/lib/gcc/arm-none-eabi/12.2.1/thumb/v8-m.main/nofp/libgcc.a(_dvmd_tls.o)
 .data          0x00000000        0x0 /usr/lib/gcc/arm-none-eabi/12.2.1/thumb/v8-m.main/nofp/libgcc.a(_arm_fixunsdfsi.o)
 .bss           0x00000000        0x0 /usr/lib/gcc/arm-none-eabi/12.2.1/thumb/v8-m.main/nofp/libgcc.a(_arm_fixunsdfsi.o)

Memory Configuration

Name             Origin             Length             Attributes
RAM_S            0x72eff800         0x00000800         xrw
RAM_N            0x60110000         0x02def440         xrw
CODE_S           0x72eff440         0x000003c0         xr
CODE_N           0x60010000         0x00100000         xr
VECTTBL_S        0x1001ff80         0x00000080         xr
VECTTBL_N        0x00010000         0x00000800         xr
OPENAMP_RSCTBL   0x62f00000         0x00001000         rw
MHU_SHMEM        0x62f01000         0x00001000         rw
OPENAMP_VRING    0x63000000         0x00800000         rw
*default*        0x00000000         0xffffffff

Linker script and memory map

START GROUP
LOAD ./src/MainTask_entry.o
LOAD ./src/blinky_thread_entry.o
LOAD ./src/hal_entry.o
LOAD ./src/mbed_printf_implementation.o
LOAD ./src/pin_data.o
LOAD ./src/platform_info.o
LOAD ./src/rpmsg_demo.o
LOAD ./src/rsc_table.o
LOAD ./src/rzg2_rproc.o
LOAD ./src/serial.o
LOAD ./src/sys_init.o
LOAD ./rzg_gen/MainTask.o
LOAD ./rzg_gen/blinky_thread.o
LOAD ./rzg_gen/common_data.o
LOAD ./rzg_gen/hal_data.o
LOAD ./rzg_gen/main.o
LOAD ./rzg_gen/vector_data.o
LOAD ./rzg/linaro/open-amp/lib/virtio/virtio.o
LOAD ./rzg/linaro/open-amp/lib/virtio/virtqueue.o
LOAD ./rzg/linaro/open-amp/lib/rpmsg/rpmsg.o
LOAD ./rzg/linaro/open-amp/lib/rpmsg/rpmsg_virtio.o
LOAD ./rzg/linaro/open-amp/lib/remoteproc/elf_loader.o
LOAD ./rzg/linaro/open-amp/lib/remoteproc/remoteproc.o
LOAD ./rzg/linaro/open-amp/lib/remoteproc/remoteproc_virtio.o
LOAD ./rzg/linaro/open-amp/lib/remoteproc/rsc_table_parser.o
LOAD ./rzg/linaro/libmetal/lib/system/freertos/rzg2/sys.o
LOAD ./rzg/linaro/libmetal/lib/system/freertos/condition.o
LOAD ./rzg/linaro/libmetal/lib/system/freertos/device.o
LOAD ./rzg/linaro/libmetal/lib/system/freertos/init.o
LOAD ./rzg/linaro/libmetal/lib/system/freertos/io.o
LOAD ./rzg/linaro/libmetal/lib/system/freertos/irq.o
LOAD ./rzg/linaro/libmetal/lib/system/freertos/shmem.o
LOAD ./rzg/linaro/libmetal/lib/system/freertos/time.o
LOAD ./rzg/linaro/libmetal/lib/device.o
LOAD ./rzg/linaro/libmetal/lib/dma.o
LOAD ./rzg/linaro/libmetal/lib/init.o
LOAD ./rzg/linaro/libmetal/lib/io.o
LOAD ./rzg/linaro/libmetal/lib/log.o
LOAD ./rzg/linaro/libmetal/lib/shmem.o
LOAD ./rzg/linaro/libmetal/lib/version.o
LOAD ./rzg/fsp/src/rm_freertos_port/port.o
LOAD ./rzg/fsp/src/rm_freertos_port/portasm.o
LOAD ./rzg/fsp/src/r_scif_uart/r_scif_uart.o
LOAD ./rzg/fsp/src/r_mhu_ns/r_mhu_ns.o
LOAD ./rzg/fsp/src/r_ioport/r_ioport.o
LOAD ./rzg/fsp/src/r_gtm/r_gtm.o
LOAD ./rzg/fsp/src/bsp/mcu/all/bsp_clocks.o
LOAD ./rzg/fsp/src/bsp/mcu/all/bsp_common.o
LOAD ./rzg/fsp/src/bsp/mcu/all/bsp_delay.o
LOAD ./rzg/fsp/src/bsp/mcu/all/bsp_group_irq.o
LOAD ./rzg/fsp/src/bsp/mcu/all/bsp_guard.o
LOAD ./rzg/fsp/src/bsp/mcu/all/bsp_io.o
LOAD ./rzg/fsp/src/bsp/mcu/all/bsp_irq.o
LOAD ./rzg/fsp/src/bsp/mcu/all/bsp_irqs.o
LOAD ./rzg/fsp/src/bsp/mcu/all/bsp_sbrk.o
LOAD ./rzg/fsp/src/bsp/mcu/all/bsp_security.o
LOAD ./rzg/fsp/src/bsp/cmsis/Device/RENESAS/Source/startup.o
LOAD ./rzg/fsp/src/bsp/cmsis/Device/RENESAS/Source/startups.o
LOAD ./rzg/fsp/src/bsp/cmsis/Device/RENESAS/Source/system.o
LOAD ./rzg/fsp/src/bsp/cmsis/Device/RENESAS/Source/systems.o
LOAD ./rzg/board/rzg2l_smarc/board_init.o
LOAD ./rzg/board/rzg2l_smarc/board_leds.o
LOAD ./rzg/aws/amazon-freertos/freertos_kernel/portable/MemMang/heap_4.o
LOAD ./rzg/aws/amazon-freertos/freertos_kernel/event_groups.o
LOAD ./rzg/aws/amazon-freertos/freertos_kernel/list.o
LOAD ./rzg/aws/amazon-freertos/freertos_kernel/queue.o
LOAD ./rzg/aws/amazon-freertos/freertos_kernel/stream_buffer.o
LOAD ./rzg/aws/amazon-freertos/freertos_kernel/tasks.o
LOAD ./rzg/aws/amazon-freertos/freertos_kernel/timers.o
END GROUP
LOAD /usr/lib/gcc/arm-none-eabi/12.2.1/../../../arm-none-eabi/lib/thumb/v8-m.main/nofp/libc_nano.a
LOAD /usr/lib/gcc/arm-none-eabi/12.2.1/../../../arm-none-eabi/lib/thumb/v8-m.main/nofp/libnosys.a
START GROUP
END GROUP
START GROUP
LOAD /usr/lib/gcc/arm-none-eabi/12.2.1/thumb/v8-m.main/nofp/libgcc.a
LOAD /usr/lib/gcc/arm-none-eabi/12.2.1/../../../arm-none-eabi/lib/thumb/v8-m.main/nofp/libg_nano.a
LOAD /usr/lib/gcc/arm-none-eabi/12.2.1/../../../arm-none-eabi/lib/thumb/v8-m.main/nofp/libc_nano.a
END GROUP
START GROUP
LOAD /usr/lib/gcc/arm-none-eabi/12.2.1/thumb/v8-m.main/nofp/libgcc.a
LOAD /usr/lib/gcc/arm-none-eabi/12.2.1/../../../arm-none-eabi/lib/thumb/v8-m.main/nofp/libc_nano.a
LOAD /usr/lib/gcc/arm-none-eabi/12.2.1/../../../arm-none-eabi/lib/thumb/v8-m.main/nofp/librdimon_nano.a
END GROUP
START GROUP
LOAD /usr/lib/gcc/arm-none-eabi/12.2.1/thumb/v8-m.main/nofp/libgcc.a
LOAD /usr/lib/gcc/arm-none-eabi/12.2.1/../../../arm-none-eabi/lib/thumb/v8-m.main/nofp/libc_nano.a
LOAD /usr/lib/gcc/arm-none-eabi/12.2.1/../../../arm-none-eabi/lib/thumb/v8-m.main/nofp/librdimon_nano.a
END GROUP
                0x00010000                        VECTBL_N_START = 0x10000
                0x00000800                        VECTBL_N_LENGTH = 0x800
                0x1001ff80                        VECTBL_S_START = 0x1001ff80
                0x00000080                        VECTBL_S_LENGTH = 0x80
                0x60010000                        CODE_N_START = 0x60010000
                0x00100000                        CODE_N_LENGTH = 0x100000
                0x60110000                        RAM_N_START = 0x60110000
                0x02def440                        RAM_N_LENGTH = 0x2def440
                0x72eff440                        CODE_S_START = 0x72eff440
                0x000003c0                        CODE_S_LENGTH = 0x3c0
                0x72eff800                        RAM_S_START = 0x72eff800
                0x00000800                        RAM_S_LENGTH = 0x800
                0x60010000                        DDR_START = 0x60010000
                0x03ef0000                        DDR_LENGTH = 0x3ef0000
                0x62f00000                        OPENAMP_RSCTBL_START = 0x62f00000
                0x00001000                        OPENAMP_RSCTBL_LENGTH = 0x1000
                0x62f01000                        MHU_SHMEM_START = 0x62f01000
                0x00001000                        MHU_SHMEM_LENGTH = 0x1000
                0x63000000                        OPENAMP_VRING_START = 0x63000000
                0x00800000                        OPENAMP_VRING_LENGTH = 0x800000
                0x62f00000                        OPENAMP_RSCTBL_START = DEFINED (OPENAMP_RSCTBL_START)?OPENAMP_RSCTBL_START:0x0
                0x00001000                        OPENAMP_RSCTBL_LENGTH = DEFINED (OPENAMP_RSCTBL_LENGTH)?OPENAMP_RSCTBL_LENGTH:0x0
                0x62f01000                        MHU_SHMEM_START = DEFINED (MHU_SHMEM_START)?MHU_SHMEM_START:0x0
                0x00001000                        MHU_SHMEM_LENGTH = DEFINED (MHU_SHMEM_LENGTH)?MHU_SHMEM_LENGTH:0x0
                0x63000000                        OPENAMP_VRING_START = DEFINED (OPENAMP_VRING_START)?OPENAMP_VRING_START:0x0
                0x00800000                        OPENAMP_VRING_LENGTH = DEFINED (OPENAMP_VRING_LENGTH)?OPENAMP_VRING_LENGTH:0x0
START GROUP
LOAD /usr/lib/gcc/arm-none-eabi/12.2.1/thumb/v8-m.main/nofp/libgcc.a
LOAD /usr/lib/gcc/arm-none-eabi/12.2.1/../../../arm-none-eabi/lib/thumb/v8-m.main/nofp/libc.a
LOAD /usr/lib/gcc/arm-none-eabi/12.2.1/../../../arm-none-eabi/lib/thumb/v8-m.main/nofp/libm.a
LOAD /usr/lib/gcc/arm-none-eabi/12.2.1/../../../arm-none-eabi/lib/thumb/v8-m.main/nofp/libnosys.a
END GROUP
                0x1001ff80                        __tz_VECTBL_S = ABSOLUTE (VECTBL_S_START)
                0x1001ff80                        . = __tz_VECTBL_S

.secure_vector  0x1001ff80       0x40
 *(.fixed_secure_vectors*)
 .fixed_secure_vectors
                0x1001ff80       0x40 ./rzg/fsp/src/bsp/cmsis/Device/RENESAS/Source/startups.o
                0x1001ff80                __Secure_Vectors
                0x72eff440                        __tz_CODE_S = ABSOLUTE (CODE_S_START)
                0x72eff440                        . = __tz_CODE_S

.secure_code    0x72eff440      0x170
 *\bsp_security.o(.text)
 *\bsp_security.o(.text.*)
 .text.R_BSP_NonSecureEnter
                0x72eff440       0x28 ./rzg/fsp/src/bsp/mcu/all/bsp_security.o
                0x72eff440                R_BSP_NonSecureEnter
 .text.R_BSP_PinCfgSecurityInit
                0x72eff468        0x4 ./rzg/fsp/src/bsp/mcu/all/bsp_security.o
                0x72eff468                R_BSP_PinCfgSecurityInit
 .text.R_BSP_SecurityInit
                0x72eff46c       0x38 ./rzg/fsp/src/bsp/mcu/all/bsp_security.o
                0x72eff46c                R_BSP_SecurityInit
 *\bsp_security.o(.rodata)
 *\bsp_security.o(.rodata.*)
 *\bsp_irqs.o(.text)
 *\bsp_irqs.o(.text.*)
 .text.bsp_irq_cfg_s
                0x72eff4a4       0x80 ./rzg/fsp/src/bsp/mcu/all/bsp_irqs.o
                0x72eff4a4                bsp_irq_cfg_s
 *\bsp_irqs.o(.rodata)
 *\bsp_irqs.o(.rodata.*)
 *\startups.o(.text)
 *\startups.o(.text.*)
 .text.Default_Handler_S
                0x72eff524        0x4 ./rzg/fsp/src/bsp/cmsis/Device/RENESAS/Source/startups.o
                0x72eff524                PendSV_Handler_S
                0x72eff524                MemManage_Handler_S
                0x72eff524                Default_Handler_S
                0x72eff524                SysTick_Handler_S
                0x72eff524                HardFault_Handler_S
                0x72eff524                DebugMon_Handler_S
                0x72eff524                SVC_Handler_S
                0x72eff524                BusFault_Handler_S
                0x72eff524                UsageFault_Handler_S
 .text.Reset_Handler_S
                0x72eff528        0x8 ./rzg/fsp/src/bsp/cmsis/Device/RENESAS/Source/startups.o
                0x72eff528                Reset_Handler_S
 .text.SecureFault_Handler
                0x72eff530        0x4 ./rzg/fsp/src/bsp/cmsis/Device/RENESAS/Source/startups.o
                0x72eff530                SecureFault_Handler
 .text.NMI_Handler_S
                0x72eff534        0x4 ./rzg/fsp/src/bsp/cmsis/Device/RENESAS/Source/startups.o
                0x72eff534                NMI_Handler_S
 *\startups.o(.rodata)
 *\startups.o(.rodata.*)
 *\systems.o(.text)
 *\systems.o(.text.*)
 .text.SystemInit_S
                0x72eff538       0x38 ./rzg/fsp/src/bsp/cmsis/Device/RENESAS/Source/systems.o
                0x72eff538                SystemInit_S
 .text.Warm_Reset_S
                0x72eff570       0x38 ./rzg/fsp/src/bsp/cmsis/Device/RENESAS/Source/systems.o
                0x72eff570                Warm_Reset_S
 .text.Warm_Reset_S.__stub
                0x72eff5a8        0x8 linker stubs
 *\systems.o(.rodata)
 *\systems.o(.rodata.*)
                0x72eff5b0                        __CODE_S_End = .
                0x72eff800                        __tz_RAM_S = ABSOLUTE (RAM_S_START)
                0x72eff800                        . = __tz_RAM_S

.s_stack_dummy  0x72eff800      0x200
                0x72eff800                        __S_StackLimit = .
 *(.s_stack)
 .s_stack       0x72eff800      0x200 ./rzg/fsp/src/bsp/cmsis/Device/RENESAS/Source/startups.o
                0x72effa00                        __S_StackTop = .
                0x00010000                        __tz_VECTBL_N = ABSOLUTE (VECTBL_N_START)
                0x00010000                        . = __tz_VECTBL_N

.non_secure_vector
                0x00010000      0x7c0
 *(.fixed_vectors*)
 .fixed_vectors
                0x00010000       0x40 ./rzg/fsp/src/bsp/cmsis/Device/RENESAS/Source/startup.o
                0x00010000                __Vectors
 *(.application_vectors*)
 .application_vectors
                0x00010040      0x780 ./rzg_gen/vector_data.o
                0x00010040                g_vector_table
                0x000107c0                        __Vectors_End = .
                0x000007c0                        __Vectors_Size = (__Vectors_End - __Vectors)
                0x60010000                        __tz_CODE_N = ABSOLUTE (CODE_N_START)
                0x60010000                        . = __tz_CODE_N

.non_secure_code
                0x60010000     0xa870
 *(.text*)
 .text.MainTask_entry
                0x60010000       0xb4 ./src/MainTask_entry.o
                0x60010000                MainTask_entry
 .text.blinky_thread_entry
                0x600100b4       0x74 ./src/blinky_thread_entry.o
                0x600100b4                blinky_thread_entry
 .text.R_BSP_WarmStart
                0x60010128       0x18 ./src/hal_entry.o
                0x60010128                R_BSP_WarmStart
 .text.mbed_minimal_formatted_string_integer
                0x60010140      0x2c8 ./src/mbed_printf_implementation.o
 .text.mbed_minimal_formatted_string
                0x60010408      0x8fc ./src/mbed_printf_implementation.o
                0x60010408                mbed_minimal_formatted_string
 .text.IpiTaskId
                0x60010d04       0x48 ./src/platform_info.o
 .text.platform_create_rpmsg_vdev
                0x60010d4c      0x114 ./src/platform_info.o
                0x60010d4c                platform_create_rpmsg_vdev
 .text.platform_init
                0x60010e60       0xd4 ./src/platform_info.o
                0x60010e60                platform_init
 .text.platform_release_rpmsg_vdev
                0x60010f34       0x48 ./src/platform_info.o
                0x60010f34                platform_release_rpmsg_vdev
 .text.platform_cleanup
                0x60010f7c       0x7c ./src/platform_info.o
                0x60010f7c                platform_cleanup
 .text.rpmsg_service_unbind1
                0x60010ff8       0x24 ./src/rpmsg_demo.o
 .text.rpmsg_service_unbind0
                0x6001101c       0x24 ./src/rpmsg_demo.o
 .text.rpmsg_endpoint_cb0
                0x60011040       0x4c ./src/rpmsg_demo.o
 .text.rpmsg_endpoint_cb1
                0x6001108c       0x4c ./src/rpmsg_demo.o
 .text.app      0x600110d8       0x98 ./src/rpmsg_demo.o
                0x600110d8                app
 .text.init_resource_table
                0x60011170       0x18 ./src/rsc_table.o
                0x60011170                init_resource_table
 .text.get_resource_table
                0x60011188       0x14 ./src/rsc_table.o
                0x60011188                get_resource_table
 .text.rzg2_proc_notify
                0x6001119c       0x1c ./src/rzg2_rproc.o
 .text.rzg2_mhu_callback
                0x600111b8       0x2c ./src/rzg2_rproc.o
 .text.rzg2_proc_remove
                0x600111e4       0x50 ./src/rzg2_rproc.o
 .text.init_memory_device
                0x60011234       0xd0 ./src/rzg2_rproc.o
 .text.rzg2_proc_init
                0x60011304       0xf4 ./src/rzg2_rproc.o
 .text.uart_callback
                0x600113f8       0x4c ./src/serial.o
 .text.outbyte  0x60011444       0xa4 ./src/serial.o
                0x60011444                outbyte
 .text.printf_raw
                0x600114e8       0x24 ./src/serial.o
                0x600114e8                printf_raw
 .text.init_system
                0x6001150c       0x3c ./src/sys_init.o
                0x6001150c                init_system
 .text.MainTask_func
                0x60011548       0x14 ./rzg_gen/MainTask.o
 .text.MainTask_create
                0x6001155c       0x4c ./rzg_gen/MainTask.o
                0x6001155c                MainTask_create
 .text.blinky_thread_func
                0x600115a8       0x14 ./rzg_gen/blinky_thread.o
 .text.blinky_thread_create
                0x600115bc       0x4c ./rzg_gen/blinky_thread.o
                0x600115bc                blinky_thread_create
 .text.g_common_init
                0x60011608        0x4 ./rzg_gen/common_data.o
                0x60011608                g_common_init
 .text.vPortSetupTimerInterrupt
                0x6001160c       0x38 ./rzg_gen/hal_data.o
                0x6001160c                vPortSetupTimerInterrupt
 .text.vPortConfigureTimerForRunTimeStatus
                0x60011644        0x4 ./rzg_gen/hal_data.o
                0x60011644                vPortConfigureTimerForRunTimeStatus
 .text.g_hal_init
                0x60011648        0x4 ./rzg_gen/hal_data.o
                0x60011648                g_hal_init
 .text.rtos_startup_err_callback_internal
                0x6001164c        0x4 ./rzg_gen/main.o
                0x6001164c                rtos_startup_err_callback_internal
                0x6001164c                rtos_startup_err_callback
 .text.rtos_startup_common_init
                0x60011650       0x68 ./rzg_gen/main.o
                0x60011650                rtos_startup_common_init
 .text.startup.main
                0x600116b8       0x50 ./rzg_gen/main.o
                0x600116b8                main
 .text.vApplicationGetIdleTaskMemory
                0x60011708       0x1c ./rzg_gen/main.o
                0x60011708                vApplicationGetIdleTaskMemory
 .text.vApplicationGetTimerTaskMemory
                0x60011724       0x1c ./rzg_gen/main.o
                0x60011724                vApplicationGetTimerTaskMemory
 .text.virtio_create_virtqueues
                0x60011740       0xb8 ./rzg/linaro/open-amp/lib/virtio/virtio.o
                0x60011740                virtio_create_virtqueues
 .text.virtqueue_create
                0x600117f8       0x80 ./rzg/linaro/open-amp/lib/virtio/virtqueue.o
                0x600117f8                virtqueue_create
 .text.virtqueue_add_buffer
                0x60011878       0xf0 ./rzg/linaro/open-amp/lib/virtio/virtqueue.o
                0x60011878                virtqueue_add_buffer
 .text.virtqueue_get_buffer
                0x60011968       0x9c ./rzg/linaro/open-amp/lib/virtio/virtqueue.o
                0x60011968                virtqueue_get_buffer
 .text.virtqueue_get_available_buffer
                0x60011a04       0xa8 ./rzg/linaro/open-amp/lib/virtio/virtqueue.o
                0x60011a04                virtqueue_get_available_buffer
 .text.virtqueue_add_consumed_buffer
                0x60011aac       0x3c ./rzg/linaro/open-amp/lib/virtio/virtqueue.o
                0x60011aac                virtqueue_add_consumed_buffer
 .text.virtqueue_kick
                0x60011ae8       0x48 ./rzg/linaro/open-amp/lib/virtio/virtqueue.o
                0x60011ae8                virtqueue_kick
 .text.virtqueue_get_desc_size
                0x60011b30       0x28 ./rzg/linaro/open-amp/lib/virtio/virtqueue.o
                0x60011b30                virtqueue_get_desc_size
 .text.virtqueue_notification
                0x60011b58        0xc ./rzg/linaro/open-amp/lib/virtio/virtqueue.o
                0x60011b58                virtqueue_notification
 .text.rpmsg_unregister_endpoint
                0x60011b64       0x44 ./rzg/linaro/open-amp/lib/rpmsg/rpmsg.o
 .text.rpmsg_send_offchannel_raw
                0x60011ba8       0x2c ./rzg/linaro/open-amp/lib/rpmsg/rpmsg.o
                0x60011ba8                rpmsg_send_offchannel_raw
 .text.rpmsg_send_ns_message
                0x60011bd4       0x40 ./rzg/linaro/open-amp/lib/rpmsg/rpmsg.o
                0x60011bd4                rpmsg_send_ns_message
 .text.rpmsg_get_endpoint
                0x60011c14       0x88 ./rzg/linaro/open-amp/lib/rpmsg/rpmsg.o
                0x60011c14                rpmsg_get_endpoint
 .text.rpmsg_register_endpoint
                0x60011c9c       0x1c ./rzg/linaro/open-amp/lib/rpmsg/rpmsg.o
                0x60011c9c                rpmsg_register_endpoint
 .text.rpmsg_create_ept
                0x60011cb8      0x10c ./rzg/linaro/open-amp/lib/rpmsg/rpmsg.o
                0x60011cb8                rpmsg_create_ept
 .text.rpmsg_destroy_ept
                0x60011dc4       0x48 ./rzg/linaro/open-amp/lib/rpmsg/rpmsg.o
                0x60011dc4                rpmsg_destroy_ept
 .text.rpmsg_virtio_tx_callback
                0x60011e0c        0x4 ./rzg/linaro/open-amp/lib/rpmsg/rpmsg_virtio.o
 .text.rpmsg_virtio_get_rx_buffer
                0x60011e10       0x3c ./rzg/linaro/open-amp/lib/rpmsg/rpmsg_virtio.o
 .text.rpmsg_virtio_rx_callback
                0x60011e4c       0xe8 ./rzg/linaro/open-amp/lib/rpmsg/rpmsg_virtio.o
 .text.rpmsg_virtio_ns_callback
                0x60011f34       0xb0 ./rzg/linaro/open-amp/lib/rpmsg/rpmsg_virtio.o
 .text.rpmsg_virtio_shm_pool_get_buffer
                0x60011fe4       0x20 ./rzg/linaro/open-amp/lib/rpmsg/rpmsg_virtio.o
                0x60011fe4                rpmsg_virtio_shm_pool_get_buffer
 .text.rpmsg_virtio_send_offchannel_raw
                0x60012004      0x1b8 ./rzg/linaro/open-amp/lib/rpmsg/rpmsg_virtio.o
 .text.rpmsg_init_vdev
                0x600121bc      0x1f0 ./rzg/linaro/open-amp/lib/rpmsg/rpmsg_virtio.o
                0x600121bc                rpmsg_init_vdev
 .text.rpmsg_deinit_vdev
                0x600123ac       0x20 ./rzg/linaro/open-amp/lib/rpmsg/rpmsg_virtio.o
                0x600123ac                rpmsg_deinit_vdev
 .text.remoteproc_virtio_notify
                0x600123cc        0x8 ./rzg/linaro/open-amp/lib/remoteproc/remoteproc.o
 .text.remoteproc_set_rsc_table
                0x600123d4       0x70 ./rzg/linaro/open-amp/lib/remoteproc/remoteproc.o
                0x600123d4                remoteproc_set_rsc_table
 .text.remoteproc_init
                0x60012444       0x38 ./rzg/linaro/open-amp/lib/remoteproc/remoteproc.o
                0x60012444                remoteproc_init
 .text.remoteproc_remove
                0x6001247c       0x44 ./rzg/linaro/open-amp/lib/remoteproc/remoteproc.o
                0x6001247c                remoteproc_remove
 .text.remoteproc_get_io_with_pa
                0x600124c0       0x50 ./rzg/linaro/open-amp/lib/remoteproc/remoteproc.o
                0x600124c0                remoteproc_get_io_with_pa
 .text.remoteproc_mmap
                0x60012510      0x178 ./rzg/linaro/open-amp/lib/remoteproc/remoteproc.o
                0x60012510                remoteproc_mmap
 .text.remoteproc_allocate_id
                0x60012688       0xa0 ./rzg/linaro/open-amp/lib/remoteproc/remoteproc.o
                0x60012688                remoteproc_allocate_id
 .text.remoteproc_create_virtio
                0x60012728      0x174 ./rzg/linaro/open-amp/lib/remoteproc/remoteproc.o
                0x60012728                remoteproc_create_virtio
 .text.remoteproc_remove_virtio
                0x6001289c       0x38 ./rzg/linaro/open-amp/lib/remoteproc/remoteproc.o
                0x6001289c                remoteproc_remove_virtio
 .text.remoteproc_get_notification
                0x600128d4       0x2c ./rzg/linaro/open-amp/lib/remoteproc/remoteproc.o
                0x600128d4                remoteproc_get_notification
 .text.rproc_virtio_negotiate_features
                0x60012900        0x4 ./rzg/linaro/open-amp/lib/remoteproc/remoteproc_virtio.o
 .text.rproc_virtio_read_config
                0x60012904        0x4 ./rzg/linaro/open-amp/lib/remoteproc/remoteproc_virtio.o
 .text.rproc_virtio_virtqueue_notify
                0x60012908       0x3c ./rzg/linaro/open-amp/lib/remoteproc/remoteproc_virtio.o
 .text.metal_io_write.part.0
                0x60012944       0x1c ./rzg/linaro/open-amp/lib/remoteproc/remoteproc_virtio.o
 .text.metal_io_read.part.0
                0x60012960       0x1c ./rzg/linaro/open-amp/lib/remoteproc/remoteproc_virtio.o
 .text.rproc_virtio_write_config
                0x6001297c        0x4 ./rzg/linaro/open-amp/lib/remoteproc/remoteproc_virtio.o
 .text.rproc_virtio_get_features
                0x60012980       0x54 ./rzg/linaro/open-amp/lib/remoteproc/remoteproc_virtio.o
 .text.rproc_virtio_get_status
                0x600129d4       0x50 ./rzg/linaro/open-amp/lib/remoteproc/remoteproc_virtio.o
 .text.rproc_virtio_set_status
                0x60012a24       0x70 ./rzg/linaro/open-amp/lib/remoteproc/remoteproc_virtio.o
 .text.rproc_virtio_reset_device
                0x60012a94        0xc ./rzg/linaro/open-amp/lib/remoteproc/remoteproc_virtio.o
 .text.rproc_virtio_set_features
                0x60012aa0       0x70 ./rzg/linaro/open-amp/lib/remoteproc/remoteproc_virtio.o
 .text.rproc_virtio_create_vdev
                0x60012b10      0x110 ./rzg/linaro/open-amp/lib/remoteproc/remoteproc_virtio.o
                0x60012b10                rproc_virtio_create_vdev
 .text.rproc_virtio_remove_vdev
                0x60012c20       0x40 ./rzg/linaro/open-amp/lib/remoteproc/remoteproc_virtio.o
                0x60012c20                rproc_virtio_remove_vdev
 .text.rproc_virtio_init_vring
                0x60012c60       0x30 ./rzg/linaro/open-amp/lib/remoteproc/remoteproc_virtio.o
                0x60012c60                rproc_virtio_init_vring
 .text.rproc_virtio_notified
                0x60012c90       0x48 ./rzg/linaro/open-amp/lib/remoteproc/remoteproc_virtio.o
                0x60012c90                rproc_virtio_notified
 .text.handle_trace_rsc
                0x60012cd8       0x1c ./rzg/linaro/open-amp/lib/remoteproc/rsc_table_parser.o
                0x60012cd8                handle_trace_rsc
 .text.handle_dummy_rsc
                0x60012cf4        0x8 ./rzg/linaro/open-amp/lib/remoteproc/rsc_table_parser.o
 .text.handle_carve_out_rsc
                0x60012cfc       0x3c ./rzg/linaro/open-amp/lib/remoteproc/rsc_table_parser.o
                0x60012cfc                handle_carve_out_rsc
 .text.handle_vdev_rsc
                0x60012d38       0x3c ./rzg/linaro/open-amp/lib/remoteproc/rsc_table_parser.o
                0x60012d38                handle_vdev_rsc
 .text.handle_rsc_table
                0x60012d74       0xb0 ./rzg/linaro/open-amp/lib/remoteproc/rsc_table_parser.o
                0x60012d74                handle_rsc_table
 .text.find_rsc
                0x60012e24       0x54 ./rzg/linaro/open-amp/lib/remoteproc/rsc_table_parser.o
                0x60012e24                find_rsc
 .text.sys_irq_restore_enable
                0x60012e78        0x4 ./rzg/linaro/libmetal/lib/system/freertos/rzg2/sys.o
                0x60012e78                sys_irq_restore_enable
 .text.sys_irq_save_disable
                0x60012e7c        0x4 ./rzg/linaro/libmetal/lib/system/freertos/rzg2/sys.o
                0x60012e7c                sys_irq_save_disable
 .text.metal_machine_cache_flush
                0x60012e80        0x4 ./rzg/linaro/libmetal/lib/system/freertos/rzg2/sys.o
                0x60012e80                metal_machine_cache_flush
 .text.metal_machine_cache_invalidate
                0x60012e84        0x4 ./rzg/linaro/libmetal/lib/system/freertos/rzg2/sys.o
                0x60012e84                metal_machine_cache_invalidate
 .text.metal_machine_io_mem_map
                0x60012e88        0x4 ./rzg/linaro/libmetal/lib/system/freertos/rzg2/sys.o
                0x60012e88                metal_machine_io_mem_map
 .text.metal_generic_dev_sys_open
                0x60012e8c       0x14 ./rzg/linaro/libmetal/lib/system/freertos/device.o
                0x60012e8c                metal_generic_dev_sys_open
 .text.metal_sys_init
                0x60012ea0       0x10 ./rzg/linaro/libmetal/lib/system/freertos/init.o
                0x60012ea0                metal_sys_init
 .text.metal_sys_io_mem_map
                0x60012eb0       0x3c ./rzg/linaro/libmetal/lib/system/freertos/io.o
                0x60012eb0                metal_sys_io_mem_map
 .text.metal_irq_register
                0x60012eec      0x23c ./rzg/linaro/libmetal/lib/system/freertos/irq.o
                0x60012eec                metal_irq_register
 .text.metal_irq_unregister
                0x60013128      0x1e8 ./rzg/linaro/libmetal/lib/system/freertos/irq.o
                0x60013128                metal_irq_unregister
 .text.metal_irq_enable
                0x60013310       0x24 ./rzg/linaro/libmetal/lib/system/freertos/irq.o
                0x60013310                metal_irq_enable
 .text.metal_irq_disable
                0x60013334       0x24 ./rzg/linaro/libmetal/lib/system/freertos/irq.o
                0x60013334                metal_irq_disable
 .text.metal_generic_dev_open
                0x60013358       0x3c ./rzg/linaro/libmetal/lib/device.o
                0x60013358                metal_generic_dev_open
 .text.metal_generic_dev_dma_map
                0x60013394       0x54 ./rzg/linaro/libmetal/lib/device.o
                0x60013394                metal_generic_dev_dma_map
 .text.metal_generic_dev_dma_unmap
                0x600133e8       0x28 ./rzg/linaro/libmetal/lib/device.o
                0x600133e8                metal_generic_dev_dma_unmap
 .text.metal_bus_register
                0x60013410       0x80 ./rzg/linaro/libmetal/lib/device.o
                0x60013410                metal_bus_register
 .text.metal_device_open
                0x60013490       0x70 ./rzg/linaro/libmetal/lib/device.o
                0x60013490                metal_device_open
 .text.metal_device_close
                0x60013500       0x2c ./rzg/linaro/libmetal/lib/device.o
                0x60013500                metal_device_close
 .text.metal_register_generic_device
                0x6001352c       0x40 ./rzg/linaro/libmetal/lib/device.o
                0x6001352c                metal_register_generic_device
 .text.metal_init
                0x6001356c       0x44 ./rzg/linaro/libmetal/lib/init.o
                0x6001356c                metal_init
 .text.metal_io_block_read
                0x600135b0       0xbc ./rzg/linaro/libmetal/lib/io.o
                0x600135b0                metal_io_block_read
 .text.metal_io_block_write
                0x6001366c       0xb4 ./rzg/linaro/libmetal/lib/io.o
                0x6001366c                metal_io_block_write
 .text.metal_io_block_set
                0x60013720       0x94 ./rzg/linaro/libmetal/lib/io.o
                0x60013720                metal_io_block_set
 .text.metal_default_log_handler
                0x600137b4        0x8 ./rzg/linaro/libmetal/lib/log.o
                0x600137b4                metal_default_log_handler
 .text.SysTick_Handler
                0x600137bc       0x24 ./rzg/fsp/src/rm_freertos_port/port.o
                0x600137bc                SysTick_Handler
 .text.prvTaskExitError.part.0
                0x600137e0       0x1c ./rzg/fsp/src/rm_freertos_port/port.o
 .text.prvTaskExitError
                0x600137fc       0x28 ./rzg/fsp/src/rm_freertos_port/port.o
 .text.rm_freertos_port_sleep_preserving_lpm.part.0
                0x60013824       0xb0 ./rzg/fsp/src/rm_freertos_port/port.o
 .text.vPortYield
                0x600138d4       0x18 ./rzg/fsp/src/rm_freertos_port/port.o
                0x600138d4                vPortYield
 .text.vPortEnterCritical
                0x600138ec       0x1c ./rzg/fsp/src/rm_freertos_port/port.o
                0x600138ec                vPortEnterCritical
 .text.vPortExitCritical
                0x60013908       0x3c ./rzg/fsp/src/rm_freertos_port/port.o
                0x60013908                vPortExitCritical
 .text.vPortSVCHandler_C
                0x60013944       0x30 ./rzg/fsp/src/rm_freertos_port/port.o
                0x60013944                vPortSVCHandler_C
 .text.pxPortInitialiseStack
                0x60013974       0x78 ./rzg/fsp/src/rm_freertos_port/port.o
                0x60013974                pxPortInitialiseStack
 .text.xPortStartScheduler
                0x600139ec       0x64 ./rzg/fsp/src/rm_freertos_port/port.o
                0x600139ec                xPortStartScheduler
 .text.vApplicationIdleHook
                0x60013a50       0x18 ./rzg/fsp/src/rm_freertos_port/port.o
                0x60013a50                vApplicationIdleHook
 .text.vPortDefineHeapRegions
                0x60013a68        0x4 ./rzg/fsp/src/rm_freertos_port/port.o
                0x60013a68                vPortDefineHeapRegions
 *fill*         0x60013a6c        0x4 
 .text.vRestoreContextOfFirstTask
                0x60013a70       0x34 ./rzg/fsp/src/rm_freertos_port/portasm.o
                0x60013a70                vRestoreContextOfFirstTask
 *fill*         0x60013aa4        0xc 
 .text.vStartFirstTask
                0x60013ab0       0x24 ./rzg/fsp/src/rm_freertos_port/portasm.o
                0x60013ab0                vStartFirstTask
 .text.ulSetInterruptMask
                0x60013ad4       0x18 ./rzg/fsp/src/rm_freertos_port/portasm.o
                0x60013ad4                ulSetInterruptMask
 .text.vClearInterruptMask
                0x60013aec       0x10 ./rzg/fsp/src/rm_freertos_port/portasm.o
                0x60013aec                vClearInterruptMask
 *fill*         0x60013afc        0x4 
 .text.PendSV_Handler_NS
                0x60013b00       0x54 ./rzg/fsp/src/rm_freertos_port/portasm.o
                0x60013b00                PendSV_Handler_NS
 *fill*         0x60013b54        0xc 
 .text.SVC_Handler_NS
                0x60013b60       0x24 ./rzg/fsp/src/rm_freertos_port/portasm.o
                0x60013b60                SVC_Handler_NS
 .text.R_SCIF_UART_Close
                0x60013b84       0xf8 ./rzg/fsp/src/r_scif_uart/r_scif_uart.o
                0x60013b84                R_SCIF_UART_Close
 .text.R_SCIF_UART_Read
                0x60013c7c        0xc ./rzg/fsp/src/r_scif_uart/r_scif_uart.o
                0x60013c7c                R_SCIF_UART_Read
 .text.R_SCIF_UART_Write
                0x60013c88       0x34 ./rzg/fsp/src/r_scif_uart/r_scif_uart.o
                0x60013c88                R_SCIF_UART_Write
 .text.R_SCIF_UART_CallbackSet
                0x60013cbc       0x10 ./rzg/fsp/src/r_scif_uart/r_scif_uart.o
                0x60013cbc                R_SCIF_UART_CallbackSet
 .text.R_SCIF_UART_InfoGet
                0x60013ccc        0xc ./rzg/fsp/src/r_scif_uart/r_scif_uart.o
                0x60013ccc                R_SCIF_UART_InfoGet
 .text.R_SCIF_UART_VersionGet
                0x60013cd8       0x10 ./rzg/fsp/src/r_scif_uart/r_scif_uart.o
                0x60013cd8                R_SCIF_UART_VersionGet
 .text.r_scif_uart_call_callback
                0x60013ce8       0x44 ./rzg/fsp/src/r_scif_uart/r_scif_uart.o
 .text.scif_uart_receive_sub
                0x60013d2c       0x60 ./rzg/fsp/src/r_scif_uart/r_scif_uart.o
 .text.R_SCIF_UART_Abort
                0x60013d8c       0x60 ./rzg/fsp/src/r_scif_uart/r_scif_uart.o
                0x60013d8c                R_SCIF_UART_Abort
 .text.R_SCIF_UART_BaudSet
                0x60013dec       0x80 ./rzg/fsp/src/r_scif_uart/r_scif_uart.o
                0x60013dec                R_SCIF_UART_BaudSet
 .text.R_SCIF_UART_Open
                0x60013e6c      0x358 ./rzg/fsp/src/r_scif_uart/r_scif_uart.o
                0x60013e6c                R_SCIF_UART_Open
 .text.scif_uart_txi_isr
                0x600141c4       0x88 ./rzg/fsp/src/r_scif_uart/r_scif_uart.o
                0x600141c4                scif_uart_txi_isr
 .text.scif_uart_rxi_isr
                0x6001424c       0x30 ./rzg/fsp/src/r_scif_uart/r_scif_uart.o
                0x6001424c                scif_uart_rxi_isr
 .text.scif_uart_tei_isr
                0x6001427c       0x60 ./rzg/fsp/src/r_scif_uart/r_scif_uart.o
                0x6001427c                scif_uart_tei_isr
 .text.scif_uart_eri_isr
                0x600142dc       0x2c ./rzg/fsp/src/r_scif_uart/r_scif_uart.o
                0x600142dc                scif_uart_eri_isr
 .text.scif_uart_bri_isr
                0x60014308       0x68 ./rzg/fsp/src/r_scif_uart/r_scif_uart.o
                0x60014308                scif_uart_bri_isr
 .text.R_MHU_NS_Open
                0x60014370       0xd0 ./rzg/fsp/src/r_mhu_ns/r_mhu_ns.o
                0x60014370                R_MHU_NS_Open
 .text.R_MHU_NS_CallbackSet
                0x60014440       0x10 ./rzg/fsp/src/r_mhu_ns/r_mhu_ns.o
                0x60014440                R_MHU_NS_CallbackSet
 .text.R_MHU_NS_Close
                0x60014450       0x54 ./rzg/fsp/src/r_mhu_ns/r_mhu_ns.o
                0x60014450                R_MHU_NS_Close
 .text.R_MHU_NS_VersionGet
                0x600144a4        0xc ./rzg/fsp/src/r_mhu_ns/r_mhu_ns.o
                0x600144a4                R_MHU_NS_VersionGet
 .text.R_MHU_NS_MsgSend
                0x600144b0       0x2c ./rzg/fsp/src/r_mhu_ns/r_mhu_ns.o
                0x600144b0                R_MHU_NS_MsgSend
 .text.R_MHU_NS_IsrSub
                0x600144dc       0x6c ./rzg/fsp/src/r_mhu_ns/r_mhu_ns.o
                0x600144dc                R_MHU_NS_IsrSub
 .text.mhu_ns_int_isr
                0x60014548       0x10 ./rzg/fsp/src/r_mhu_ns/r_mhu_ns.o
                0x60014548                mhu_ns_int_isr
 .text.r_ioport_dedicated_port_cfg
                0x60014558       0xc0 ./rzg/fsp/src/r_ioport/r_ioport.o
 .text.r_ioport_peri_mode_pin_config
                0x60014618      0x150 ./rzg/fsp/src/r_ioport/r_ioport.o
 .text.r_ioport_port_mode_pin_config
                0x60014768      0x1a8 ./rzg/fsp/src/r_ioport/r_ioport.o
 .text.r_ioport_pins_config
                0x60014910       0x98 ./rzg/fsp/src/r_ioport/r_ioport.o
 .text.R_IOPORT_Open
                0x600149a8       0x14 ./rzg/fsp/src/r_ioport/r_ioport.o
                0x600149a8                R_IOPORT_Open
 .text.R_GTM_Open
                0x600149bc       0xc8 ./rzg/fsp/src/r_gtm/r_gtm.o
                0x600149bc                R_GTM_Open
 .text.R_GTM_Start
                0x60014a84        0xc ./rzg/fsp/src/r_gtm/r_gtm.o
                0x60014a84                R_GTM_Start
 .text.R_GTM_Stop
                0x60014a90        0xc ./rzg/fsp/src/r_gtm/r_gtm.o
                0x60014a90                R_GTM_Stop
 .text.R_GTM_Reset
                0x60014a9c        0x4 ./rzg/fsp/src/r_gtm/r_gtm.o
                0x60014a9c                R_GTM_Reset
 .text.R_GTM_PeriodSet
                0x60014aa0        0xc ./rzg/fsp/src/r_gtm/r_gtm.o
                0x60014aa0                R_GTM_PeriodSet
 .text.R_GTM_DutyCycleSet
                0x60014aac        0x4 ./rzg/fsp/src/r_gtm/r_gtm.o
                0x60014aac                R_GTM_DutyCycleSet
 .text.R_GTM_StatusGet
                0x60014ab0       0x14 ./rzg/fsp/src/r_gtm/r_gtm.o
                0x60014ab0                R_GTM_StatusGet
 .text.R_GTM_CallbackSet
                0x60014ac4       0x10 ./rzg/fsp/src/r_gtm/r_gtm.o
                0x60014ac4                R_GTM_CallbackSet
 .text.R_GTM_Close
                0x60014ad4       0x64 ./rzg/fsp/src/r_gtm/r_gtm.o
                0x60014ad4                R_GTM_Close
 .text.R_GTM_VersionGet
                0x60014b38       0x10 ./rzg/fsp/src/r_gtm/r_gtm.o
                0x60014b38                R_GTM_VersionGet
 .text.R_GTM_InfoGet
                0x60014b48       0x24 ./rzg/fsp/src/r_gtm/r_gtm.o
                0x60014b48                R_GTM_InfoGet
 .text.R_GTM_Disable
                0x60014b6c        0x4 ./rzg/fsp/src/r_gtm/r_gtm.o
                0x60014b6c                R_GTM_Disable
 .text.R_GTM_Enable
                0x60014b70        0x4 ./rzg/fsp/src/r_gtm/r_gtm.o
                0x60014b70                R_GTM_Enable
 .text.gtm_int_isr
                0x60014b74       0x54 ./rzg/fsp/src/r_gtm/r_gtm.o
                0x60014b74                gtm_int_isr
 .text.SystemCoreClockUpdate
                0x60014bc8       0x14 ./rzg/fsp/src/bsp/mcu/all/bsp_clocks.o
                0x60014bc8                SystemCoreClockUpdate
 *fill*         0x60014bdc        0x4 
 .text.bsp_clock_freq_var_init
                0x60014be0       0xd8 ./rzg/fsp/src/bsp/mcu/all/bsp_clocks.o
                0x60014be0                bsp_clock_freq_var_init
 .text.bsp_clock_init
                0x60014cb8       0xd8 ./rzg/fsp/src/bsp/mcu/all/bsp_clocks.o
                0x60014cb8                bsp_clock_init
 .text.R_FSP_SystemClockHzGet
                0x60014d90        0xc ./rzg/fsp/src/bsp/mcu/all/bsp_clocks.o
                0x60014d90                R_FSP_SystemClockHzGet
 .text.bsp_irq_cfg
                0x60014d9c        0x4 ./rzg/fsp/src/bsp/mcu/all/bsp_irq.o
                0x60014d9c                bsp_irq_cfg
 .text._sbrk    0x60014da0       0x40 ./rzg/fsp/src/bsp/mcu/all/bsp_sbrk.o
                0x60014da0                _sbrk
 .text.Default_Handler
                0x60014de0        0x4 ./rzg/fsp/src/bsp/cmsis/Device/RENESAS/Source/startup.o
                0x60014de0                MemManage_Handler_NS
                0x60014de0                BusFault_Handler_NS
                0x60014de0                Default_Handler
                0x60014de0                UsageFault_Handler_NS
                0x60014de0                DebugMon_Handler_NS
                0x60014de0                HardFault_Handler_NS
                0x60014de0                SysTick_Handler_NS
 .text.Reset_Handler_NS
                0x60014de4        0xc ./rzg/fsp/src/bsp/cmsis/Device/RENESAS/Source/startup.o
                0x60014de4                Reset_Handler_NS
 .text.NMI_Handler_NS
                0x60014df0        0x4 ./rzg/fsp/src/bsp/cmsis/Device/RENESAS/Source/startup.o
                0x60014df0                NMI_Handler_NS
 .text.SystemInit
                0x60014df4       0x78 ./rzg/fsp/src/bsp/cmsis/Device/RENESAS/Source/system.o
                0x60014df4                SystemInit
 .text.bsp_init
                0x60014e6c        0x4 ./rzg/board/rzg2l_smarc/board_init.o
                0x60014e6c                bsp_init
 .text.prvInsertBlockIntoFreeList
                0x60014e70       0x60 ./rzg/aws/amazon-freertos/freertos_kernel/portable/MemMang/heap_4.o
 .text.pvPortMalloc
                0x60014ed0      0x140 ./rzg/aws/amazon-freertos/freertos_kernel/portable/MemMang/heap_4.o
                0x60014ed0                pvPortMalloc
 .text.vPortFree
                0x60015010       0x84 ./rzg/aws/amazon-freertos/freertos_kernel/portable/MemMang/heap_4.o
                0x60015010                vPortFree
 .text.vListInitialise
                0x60015094       0x18 ./rzg/aws/amazon-freertos/freertos_kernel/list.o
                0x60015094                vListInitialise
 .text.vListInitialiseItem
                0x600150ac        0x8 ./rzg/aws/amazon-freertos/freertos_kernel/list.o
                0x600150ac                vListInitialiseItem
 .text.vListInsertEnd
                0x600150b4       0x1c ./rzg/aws/amazon-freertos/freertos_kernel/list.o
                0x600150b4                vListInsertEnd
 .text.vListInsert
                0x600150d0       0x30 ./rzg/aws/amazon-freertos/freertos_kernel/list.o
                0x600150d0                vListInsert
 .text.uxListRemove
                0x60015100       0x24 ./rzg/aws/amazon-freertos/freertos_kernel/list.o
                0x60015100                uxListRemove
 .text.prvCopyDataToQueue
                0x60015124       0x60 ./rzg/aws/amazon-freertos/freertos_kernel/queue.o
 .text.prvUnlockQueue
                0x60015184       0x8c ./rzg/aws/amazon-freertos/freertos_kernel/queue.o
 .text.xQueueGenericReset
                0x60015210       0x84 ./rzg/aws/amazon-freertos/freertos_kernel/queue.o
                0x60015210                xQueueGenericReset
 .text.xQueueGenericCreateStatic
                0x60015294       0xa8 ./rzg/aws/amazon-freertos/freertos_kernel/queue.o
                0x60015294                xQueueGenericCreateStatic
 .text.xQueueCreateCountingSemaphoreStatic
                0x6001533c       0x8c ./rzg/aws/amazon-freertos/freertos_kernel/queue.o
                0x6001533c                xQueueCreateCountingSemaphoreStatic
 .text.xQueueCreateCountingSemaphore
                0x600153c8       0x5c ./rzg/aws/amazon-freertos/freertos_kernel/queue.o
                0x600153c8                xQueueCreateCountingSemaphore
 .text.xQueueGenericSend
                0x60015424      0x17c ./rzg/aws/amazon-freertos/freertos_kernel/queue.o
                0x60015424                xQueueGenericSend
 .text.xQueueGenericSendFromISR
                0x600155a0       0xe8 ./rzg/aws/amazon-freertos/freertos_kernel/queue.o
                0x600155a0                xQueueGenericSendFromISR
 .text.xQueueGiveFromISR
                0x60015688       0xc8 ./rzg/aws/amazon-freertos/freertos_kernel/queue.o
                0x60015688                xQueueGiveFromISR
 .text.xQueueReceive
                0x60015750      0x168 ./rzg/aws/amazon-freertos/freertos_kernel/queue.o
                0x60015750                xQueueReceive
 .text.xQueueSemaphoreTake
                0x600158b8      0x144 ./rzg/aws/amazon-freertos/freertos_kernel/queue.o
                0x600158b8                xQueueSemaphoreTake
 .text.vQueueDelete
                0x600159fc       0x60 ./rzg/aws/amazon-freertos/freertos_kernel/queue.o
                0x600159fc                vQueueDelete
 .text.vQueueAddToRegistry
                0x60015a5c       0x2c ./rzg/aws/amazon-freertos/freertos_kernel/queue.o
                0x60015a5c                vQueueAddToRegistry
 .text.vQueueWaitForMessageRestricted
                0x60015a88       0x50 ./rzg/aws/amazon-freertos/freertos_kernel/queue.o
                0x60015a88                vQueueWaitForMessageRestricted
 .text.prvAddNewTaskToReadyList
                0x60015ad8      0x100 ./rzg/aws/amazon-freertos/freertos_kernel/tasks.o
 .text.prvAddCurrentTaskToDelayedList
                0x60015bd8       0x74 ./rzg/aws/amazon-freertos/freertos_kernel/tasks.o
 .text.prvInitialiseNewTask.constprop.0
                0x60015c4c       0x98 ./rzg/aws/amazon-freertos/freertos_kernel/tasks.o
 .text.prvIdleTask
                0x60015ce4       0x94 ./rzg/aws/amazon-freertos/freertos_kernel/tasks.o
 .text.xTaskCreateStatic
                0x60015d78       0x78 ./rzg/aws/amazon-freertos/freertos_kernel/tasks.o
                0x60015d78                xTaskCreateStatic
 .text.xTaskCreate
                0x60015df0       0x60 ./rzg/aws/amazon-freertos/freertos_kernel/tasks.o
                0x60015df0                xTaskCreate
 .text.vTaskDelete
                0x60015e50      0x10c ./rzg/aws/amazon-freertos/freertos_kernel/tasks.o
                0x60015e50                vTaskDelete
 .text.vTaskStartScheduler
                0x60015f5c       0x98 ./rzg/aws/amazon-freertos/freertos_kernel/tasks.o
                0x60015f5c                vTaskStartScheduler
 .text.vTaskSuspendAll
                0x60015ff4       0x10 ./rzg/aws/amazon-freertos/freertos_kernel/tasks.o
                0x60015ff4                vTaskSuspendAll
 .text.xTaskGetTickCount
                0x60016004        0xc ./rzg/aws/amazon-freertos/freertos_kernel/tasks.o
                0x60016004                xTaskGetTickCount
 .text.xTaskIncrementTick
                0x60016010      0x15c ./rzg/aws/amazon-freertos/freertos_kernel/tasks.o
                0x60016010                xTaskIncrementTick
 .text.xTaskResumeAll
                0x6001616c      0x11c ./rzg/aws/amazon-freertos/freertos_kernel/tasks.o
                0x6001616c                xTaskResumeAll
 .text.vTaskDelay
                0x60016288       0x48 ./rzg/aws/amazon-freertos/freertos_kernel/tasks.o
                0x60016288                vTaskDelay
 .text.vTaskSwitchContext
                0x600162d0       0x90 ./rzg/aws/amazon-freertos/freertos_kernel/tasks.o
                0x600162d0                vTaskSwitchContext
 .text.vTaskPlaceOnEventList
                0x60016360       0x3c ./rzg/aws/amazon-freertos/freertos_kernel/tasks.o
                0x60016360                vTaskPlaceOnEventList
 .text.vTaskPlaceOnEventListRestricted
                0x6001639c       0x48 ./rzg/aws/amazon-freertos/freertos_kernel/tasks.o
                0x6001639c                vTaskPlaceOnEventListRestricted
 .text.xTaskRemoveFromEventList
                0x600163e4       0x94 ./rzg/aws/amazon-freertos/freertos_kernel/tasks.o
                0x600163e4                xTaskRemoveFromEventList
 .text.vTaskInternalSetTimeOutState
                0x60016478       0x18 ./rzg/aws/amazon-freertos/freertos_kernel/tasks.o
                0x60016478                vTaskInternalSetTimeOutState
 .text.xTaskCheckForTimeOut
                0x60016490       0x88 ./rzg/aws/amazon-freertos/freertos_kernel/tasks.o
                0x60016490                xTaskCheckForTimeOut
 .text.vTaskMissedYield
                0x60016518        0xc ./rzg/aws/amazon-freertos/freertos_kernel/tasks.o
                0x60016518                vTaskMissedYield
 .text.xTaskGetSchedulerState
                0x60016524       0x20 ./rzg/aws/amazon-freertos/freertos_kernel/tasks.o
                0x60016524                xTaskGetSchedulerState
 .text.prvCheckForValidListAndQueue
                0x60016544       0x6c ./rzg/aws/amazon-freertos/freertos_kernel/timers.o
 .text.xTimerCreateTimerTask
                0x600165b0       0x6c ./rzg/aws/amazon-freertos/freertos_kernel/timers.o
                0x600165b0                xTimerCreateTimerTask
 .text.xTimerGenericCommand
                0x6001661c       0x70 ./rzg/aws/amazon-freertos/freertos_kernel/timers.o
                0x6001661c                xTimerGenericCommand
 .text.prvSwitchTimerLists
                0x6001668c       0x84 ./rzg/aws/amazon-freertos/freertos_kernel/timers.o
 .text.prvTimerTask
                0x60016710      0x244 ./rzg/aws/amazon-freertos/freertos_kernel/timers.o
 .text          0x60016954       0x48 /usr/lib/gcc/arm-none-eabi/12.2.1/../../../arm-none-eabi/lib/thumb/v8-m.main/nofp/libc_nano.a(lib_a-assert.o)
                0x60016954                __assert_func
                0x60016990                __assert
 .text          0x6001699c        0xc /usr/lib/gcc/arm-none-eabi/12.2.1/../../../arm-none-eabi/lib/thumb/v8-m.main/nofp/libc_nano.a(lib_a-errno.o)
                0x6001699c                __errno
 .text          0x600169a8       0x44 /usr/lib/gcc/arm-none-eabi/12.2.1/../../../arm-none-eabi/lib/thumb/v8-m.main/nofp/libc_nano.a(lib_a-fprintf.o)
                0x600169a8                _fprintf_r
                0x600169a8                _fiprintf_r
                0x600169c4                fprintf
                0x600169c4                fiprintf
 .text          0x600169ec       0xec /usr/lib/gcc/arm-none-eabi/12.2.1/../../../arm-none-eabi/lib/thumb/v8-m.main/nofp/libc_nano.a(lib_a-memcpy.o)
                0x600169ec                memcpy
 .text          0x60016ad8       0xa4 /usr/lib/gcc/arm-none-eabi/12.2.1/../../../arm-none-eabi/lib/thumb/v8-m.main/nofp/libc_nano.a(lib_a-memset.o)
                0x60016ad8                memset
 .text          0x60016b7c      0x314 /usr/lib/gcc/arm-none-eabi/12.2.1/../../../arm-none-eabi/lib/thumb/v8-m.main/nofp/libc_nano.a(lib_a-nano-vfprintf.o)
                0x60016ba4                __sfputs_r
                0x60016bd4                __sprint_r
                0x60016bf0                _vfiprintf_r
                0x60016bf0                _vfprintf_r
                0x60016e78                vfiprintf
                0x60016e78                vfprintf
 .text          0x60016e90      0x3e4 /usr/lib/gcc/arm-none-eabi/12.2.1/../../../arm-none-eabi/lib/thumb/v8-m.main/nofp/libc_nano.a(lib_a-nano-vfprintf_i.o)
                0x60016e90                _printf_common
                0x60016fb4                _printf_i
 .text          0x60017274      0x1bc /usr/lib/gcc/arm-none-eabi/12.2.1/../../../arm-none-eabi/lib/thumb/v8-m.main/nofp/libc_nano.a(lib_a-strcmp.o)
                0x60017274                strcmp
 .text          0x60017430       0x78 /usr/lib/gcc/arm-none-eabi/12.2.1/../../../arm-none-eabi/lib/thumb/v8-m.main/nofp/libc_nano.a(lib_a-strncmp.o)
                0x60017430                strncmp
 .text          0x600174a8       0x64 /usr/lib/gcc/arm-none-eabi/12.2.1/../../../arm-none-eabi/lib/thumb/v8-m.main/nofp/libc_nano.a(lib_a-strncpy.o)
                0x600174a8                strncpy
 .text          0x6001750c       0xc0 /usr/lib/gcc/arm-none-eabi/12.2.1/../../../arm-none-eabi/lib/thumb/v8-m.main/nofp/libc_nano.a(lib_a-wbuf.o)
                0x6001750c                __swbuf_r
                0x600175bc                __swbuf
 .text          0x600175cc      0x104 /usr/lib/gcc/arm-none-eabi/12.2.1/../../../arm-none-eabi/lib/thumb/v8-m.main/nofp/libc_nano.a(lib_a-wsetup.o)
                0x600175cc                __swsetup_r
 .text          0x600176d0       0x10 /usr/lib/gcc/arm-none-eabi/12.2.1/../../../arm-none-eabi/lib/thumb/v8-m.main/nofp/libc_nano.a(lib_a-abort.o)
                0x600176d0                abort
 .text          0x600176e0      0x1ec /usr/lib/gcc/arm-none-eabi/12.2.1/../../../arm-none-eabi/lib/thumb/v8-m.main/nofp/libc_nano.a(lib_a-fflush.o)
                0x600176e0                __sflush_r
                0x600177f8                _fflush_r
                0x6001784c                fflush
 .text          0x600178cc      0x240 /usr/lib/gcc/arm-none-eabi/12.2.1/../../../arm-none-eabi/lib/thumb/v8-m.main/nofp/libc_nano.a(lib_a-findfp.o)
                0x600178d0                _cleanup_r
                0x600178e0                __sfmoreglue
                0x60017910                __sfp
                0x60017ab8                _cleanup
                0x60017acc                __sinit
                0x60017ad4                __sfp_lock_acquire
                0x60017ad8                __sfp_lock_release
                0x60017adc                __sinit_lock_acquire
                0x60017ae0                __sinit_lock_release
                0x60017ae4                __fp_lock_all
                0x60017af8                __fp_unlock_all
 .text          0x60017b0c      0x2ec /usr/lib/gcc/arm-none-eabi/12.2.1/../../../arm-none-eabi/lib/thumb/v8-m.main/nofp/libc_nano.a(lib_a-fvwrite.o)
                0x60017b0c                __sfvwrite_r
 .text          0x60017df8       0x84 /usr/lib/gcc/arm-none-eabi/12.2.1/../../../arm-none-eabi/lib/thumb/v8-m.main/nofp/libc_nano.a(lib_a-fwalk.o)
                0x60017df8                _fwalk
                0x60017e38                _fwalk_reent
 .text          0x60017e7c      0x120 /usr/lib/gcc/arm-none-eabi/12.2.1/../../../arm-none-eabi/lib/thumb/v8-m.main/nofp/libc_nano.a(lib_a-makebuf.o)
                0x60017e7c                __smakebuf_r
                0x60017f40                __swhatbuf_r
 .text          0x60017f9c       0x7c /usr/lib/gcc/arm-none-eabi/12.2.1/../../../arm-none-eabi/lib/thumb/v8-m.main/nofp/libc_nano.a(lib_a-memchr-stub.o)
                0x60017f9c                memchr
 .text          0x60018018       0xf8 /usr/lib/gcc/arm-none-eabi/12.2.1/../../../arm-none-eabi/lib/thumb/v8-m.main/nofp/libc_nano.a(lib_a-memmove.o)
                0x60018018                memmove
 .text          0x60018110       0xb8 /usr/lib/gcc/arm-none-eabi/12.2.1/../../../arm-none-eabi/lib/thumb/v8-m.main/nofp/libc_nano.a(lib_a-nano-freer.o)
                0x60018110                _free_r
 .text          0x600181c8       0xb4 /usr/lib/gcc/arm-none-eabi/12.2.1/../../../arm-none-eabi/lib/thumb/v8-m.main/nofp/libc_nano.a(lib_a-nano-mallocr.o)
                0x600181c8                _malloc_r
 .text          0x6001827c       0x50 /usr/lib/gcc/arm-none-eabi/12.2.1/../../../arm-none-eabi/lib/thumb/v8-m.main/nofp/libc_nano.a(lib_a-nano-reallocr.o)
                0x6001827c                _realloc_r
 .text          0x600182cc       0x24 /usr/lib/gcc/arm-none-eabi/12.2.1/../../../arm-none-eabi/lib/thumb/v8-m.main/nofp/libc_nano.a(lib_a-sbrkr.o)
                0x600182cc                _sbrk_r
 .text          0x600182f0      0x268 /usr/lib/gcc/arm-none-eabi/12.2.1/../../../arm-none-eabi/lib/thumb/v8-m.main/nofp/libc_nano.a(lib_a-signal.o)
                0x600182f0                _init_signal_r
                0x6001831c                _signal_r
                0x60018364                _raise_r
                0x600183b8                __sigtramp_r
                0x60018418                raise
                0x60018470                signal
                0x600184c0                _init_signal
                0x600184f4                __sigtramp
 .text          0x60018558       0x30 /usr/lib/gcc/arm-none-eabi/12.2.1/../../../arm-none-eabi/lib/thumb/v8-m.main/nofp/libc_nano.a(lib_a-signalr.o)
                0x60018558                _kill_r
                0x60018584                _getpid_r
 .text          0x60018588       0x94 /usr/lib/gcc/arm-none-eabi/12.2.1/../../../arm-none-eabi/lib/thumb/v8-m.main/nofp/libc_nano.a(lib_a-stdio.o)
                0x60018588                __sread
                0x600185ac                __seofread
                0x600185b0                __swrite
                0x600185f0                __sseek
                0x60018614                __sclose
 .text          0x6001861c       0x2c /usr/lib/gcc/arm-none-eabi/12.2.1/../../../arm-none-eabi/lib/thumb/v8-m.main/nofp/libc_nano.a(lib_a-writer.o)
                0x6001861c                _write_r
 .text          0x60018648       0x24 /usr/lib/gcc/arm-none-eabi/12.2.1/../../../arm-none-eabi/lib/thumb/v8-m.main/nofp/libc_nano.a(lib_a-closer.o)
                0x60018648                _close_r
 .text          0x6001866c       0x2c /usr/lib/gcc/arm-none-eabi/12.2.1/../../../arm-none-eabi/lib/thumb/v8-m.main/nofp/libc_nano.a(lib_a-fstatr.o)
                0x6001866c                _fstat_r
 .text          0x60018698       0x24 /usr/lib/gcc/arm-none-eabi/12.2.1/../../../arm-none-eabi/lib/thumb/v8-m.main/nofp/libc_nano.a(lib_a-isattyr.o)
                0x60018698                _isatty_r
 .text          0x600186bc       0x2c /usr/lib/gcc/arm-none-eabi/12.2.1/../../../arm-none-eabi/lib/thumb/v8-m.main/nofp/libc_nano.a(lib_a-lseekr.o)
                0x600186bc                _lseek_r
 .text          0x600186e8        0x8 /usr/lib/gcc/arm-none-eabi/12.2.1/../../../arm-none-eabi/lib/thumb/v8-m.main/nofp/libc_nano.a(lib_a-mlock.o)
                0x600186e8                __malloc_lock
                0x600186ec                __malloc_unlock
 .text          0x600186f0       0x14 /usr/lib/gcc/arm-none-eabi/12.2.1/../../../arm-none-eabi/lib/thumb/v8-m.main/nofp/libc_nano.a(lib_a-nano-msizer.o)
                0x600186f0                _malloc_usable_size_r
 .text          0x60018704       0x2c /usr/lib/gcc/arm-none-eabi/12.2.1/../../../arm-none-eabi/lib/thumb/v8-m.main/nofp/libc_nano.a(lib_a-readr.o)
                0x60018704                _read_r
 .text          0x60018730       0x10 /usr/lib/gcc/arm-none-eabi/12.2.1/../../../arm-none-eabi/lib/thumb/v8-m.main/nofp/libnosys.a(close.o)
                0x60018730                _close
 .text          0x60018740       0x10 /usr/lib/gcc/arm-none-eabi/12.2.1/../../../arm-none-eabi/lib/thumb/v8-m.main/nofp/libnosys.a(fstat.o)
                0x60018740                _fstat
 .text          0x60018750       0x10 /usr/lib/gcc/arm-none-eabi/12.2.1/../../../arm-none-eabi/lib/thumb/v8-m.main/nofp/libnosys.a(getpid.o)
                0x60018750                _getpid
 .text          0x60018760       0x10 /usr/lib/gcc/arm-none-eabi/12.2.1/../../../arm-none-eabi/lib/thumb/v8-m.main/nofp/libnosys.a(isatty.o)
                0x60018760                _isatty
 .text          0x60018770       0x10 /usr/lib/gcc/arm-none-eabi/12.2.1/../../../arm-none-eabi/lib/thumb/v8-m.main/nofp/libnosys.a(kill.o)
                0x60018770                _kill
 .text          0x60018780       0x10 /usr/lib/gcc/arm-none-eabi/12.2.1/../../../arm-none-eabi/lib/thumb/v8-m.main/nofp/libnosys.a(lseek.o)
                0x60018780                _lseek
 .text          0x60018790       0x10 /usr/lib/gcc/arm-none-eabi/12.2.1/../../../arm-none-eabi/lib/thumb/v8-m.main/nofp/libnosys.a(read.o)
                0x60018790                _read
 .text          0x600187a0       0x10 /usr/lib/gcc/arm-none-eabi/12.2.1/../../../arm-none-eabi/lib/thumb/v8-m.main/nofp/libnosys.a(write.o)
                0x600187a0                _write
 .text          0x600187b0        0x4 /usr/lib/gcc/arm-none-eabi/12.2.1/../../../arm-none-eabi/lib/thumb/v8-m.main/nofp/libnosys.a(_exit.o)
                0x600187b0                _exit
 .text          0x600187b4      0x378 /usr/lib/gcc/arm-none-eabi/12.2.1/thumb/v8-m.main/nofp/libgcc.a(_arm_addsubdf3.o)
                0x600187b4                __aeabi_drsub
                0x600187bc                __aeabi_dsub
                0x600187bc                __subdf3
                0x600187c0                __adddf3
                0x600187c0                __aeabi_dadd
                0x60018a38                __aeabi_ui2d
                0x60018a38                __floatunsidf
                0x60018a58                __floatsidf
                0x60018a58                __aeabi_i2d
                0x60018a7c                __extendsfdf2
                0x60018a7c                __aeabi_f2d
                0x60018ac0                __aeabi_ul2d
                0x60018ac0                __floatundidf
                0x60018ad0                __floatdidf
                0x60018ad0                __aeabi_l2d
 .text          0x60018b2c      0x110 /usr/lib/gcc/arm-none-eabi/12.2.1/thumb/v8-m.main/nofp/libgcc.a(_arm_cmpdf2.o)
                0x60018b2c                __gtdf2
                0x60018b2c                __gedf2
                0x60018b34                __ltdf2
                0x60018b34                __ledf2
                0x60018b3c                __cmpdf2
                0x60018b3c                __eqdf2
                0x60018b3c                __nedf2
                0x60018bb8                __aeabi_cdrcmple
                0x60018bc8                __aeabi_cdcmple
                0x60018bc8                __aeabi_cdcmpeq
                0x60018bd8                __aeabi_dcmpeq
                0x60018bec                __aeabi_dcmplt
                0x60018c00                __aeabi_dcmple
                0x60018c14                __aeabi_dcmpge
                0x60018c28                __aeabi_dcmpgt
 .text          0x60018c3c       0x30 /usr/lib/gcc/arm-none-eabi/12.2.1/thumb/v8-m.main/nofp/libgcc.a(_fixdfdi.o)
                0x60018c3c                __aeabi_d2lz
                0x60018c3c                __fixdfdi
 .text          0x60018c6c       0x3c /usr/lib/gcc/arm-none-eabi/12.2.1/thumb/v8-m.main/nofp/libgcc.a(_fixunsdfdi.o)
                0x60018c6c                __aeabi_d2ulz
                0x60018c6c                __fixunsdfdi
 .text          0x60018ca8      0x254 /usr/lib/gcc/arm-none-eabi/12.2.1/thumb/v8-m.main/nofp/libgcc.a(_arm_muldf3.o)
                0x60018ca8                __aeabi_dmul
                0x60018ca8                __muldf3
 .text          0x60018efc       0x40 /usr/lib/gcc/arm-none-eabi/12.2.1/thumb/v8-m.main/nofp/libgcc.a(_arm_fixunsdfsi.o)
                0x60018efc                __fixunsdfsi
                0x60018efc                __aeabi_d2uiz
 *(.version)
 .version       0x60018f3c       0x48 ./rzg/fsp/src/bsp/mcu/all/bsp_common.o
 *(.init)
 *(.fini)
 *crtbegin.o(.ctors)
 *crtbegin?.o(.ctors)
 *(EXCLUDE_FILE(crtend.o * crtend?.o *) .ctors)
 *(SORT_BY_NAME(.ctors.*))
 *(.ctors)
 *crtbegin.o(.dtors)
 *crtbegin?.o(.dtors)
 *(EXCLUDE_FILE(crtend.o * crtend?.o *) .dtors)
 *(SORT_BY_NAME(.dtors.*))
 *(.dtors)
 *(.rodata*)
 .rodata.MainTask_entry.str1.4
                0x60018f84       0xc6 ./src/MainTask_entry.o
 *fill*         0x6001904a        0x2 
 .rodata.CSWTCH.27
                0x6001904c       0x2f ./src/mbed_printf_implementation.o
 *fill*         0x6001907b        0x1 
 .rodata.int2hex_upper.0
                0x6001907c       0x10 ./src/mbed_printf_implementation.o
 .rodata.int2hex_lower.1
                0x6001908c       0x10 ./src/mbed_printf_implementation.o
 .rodata.g_bsp_pin_cfg
                0x6001909c        0x8 ./src/pin_data.o
                0x6001909c                g_bsp_pin_cfg
 .rodata.g_bsp_pin_cfg_data
                0x600190a4       0x10 ./src/pin_data.o
                0x600190a4                g_bsp_pin_cfg_data
 .rodata.IpiTaskId.str1.4
                0x600190b4       0x2d ./src/platform_info.o
 *fill*         0x600190e1        0x3 
 .rodata.platform_create_rpmsg_vdev.str1.4
                0x600190e4       0xda ./src/platform_info.o
 *fill*         0x600191be        0x2 
 .rodata.platform_init.str1.4
                0x600191c0       0xd9 ./src/platform_info.o
 *fill*         0x60019299        0x3 
 .rodata.str1.4
                0x6001929c       0x7c ./src/platform_info.o
 .rodata.rpmsg_endpoint_cb0.str1.4
                0x60019318       0x1a ./src/rpmsg_demo.o
 *fill*         0x60019332        0x2 
 .rodata.app.str1.4
                0x60019334       0x5b ./src/rpmsg_demo.o
 *fill*         0x6001938f        0x1 
 .rodata.rzg2_proc_remove.str1.4
                0x60019390       0x26 ./src/rzg2_rproc.o
 *fill*         0x600193b6        0x2 
 .rodata.init_memory_device.str1.4
                0x600193b8       0x76 ./src/rzg2_rproc.o
 *fill*         0x6001942e        0x2 
 .rodata.rzg2_proc_init.str1.4
                0x60019430       0x9e ./src/rzg2_rproc.o
 .rodata.str1.4
                0x600194ce       0x74 ./src/sys_init.o
 *fill*         0x600194ce        0x2 
 .rodata.metal_phys
                0x600194d0       0x18 ./src/sys_init.o
                0x600194d0                metal_phys
 .rodata        0x600194e8        0x8 ./src/sys_init.o
 .rodata.MainTask_create.str1.4
                0x600194f0        0xb ./rzg_gen/MainTask.o
 *fill*         0x600194fb        0x1 
 .rodata.MainTask_parameters
                0x600194fc        0x4 ./rzg_gen/MainTask.o
                0x600194fc                MainTask_parameters
 .rodata.blinky_thread_create.str1.4
                0x60019500        0xe ./rzg_gen/blinky_thread.o
 *fill*         0x6001950e        0x2 
 .rodata.blinky_thread_parameters
                0x60019510        0x4 ./rzg_gen/blinky_thread.o
                0x60019510                blinky_thread_parameters
 .rodata.g_timer2_cfg
                0x60019514       0x20 ./rzg_gen/hal_data.o
                0x60019514                g_timer2_cfg
 .rodata.g_timer2_extend
                0x60019534        0x2 ./rzg_gen/hal_data.o
                0x60019534                g_timer2_extend
 *fill*         0x60019536        0x2 
 .rodata.g_mhu_ns0
                0x60019538        0xc ./rzg_gen/hal_data.o
                0x60019538                g_mhu_ns0
 .rodata.g_mhu_ns0_cfg
                0x60019544       0x14 ./rzg_gen/hal_data.o
                0x60019544                g_mhu_ns0_cfg
 .rodata.g_uart2
                0x60019558        0xc ./rzg_gen/hal_data.o
                0x60019558                g_uart2
 .rodata.g_uart2_cfg
                0x60019564       0x28 ./rzg_gen/hal_data.o
                0x60019564                g_uart2_cfg
 .rodata.g_uart2_cfg_extend
                0x6001958c       0x18 ./rzg_gen/hal_data.o
                0x6001958c                g_uart2_cfg_extend
 .rodata.xHeapRegions
                0x600195a4       0x10 ./rzg_gen/main.o
                0x600195a4                xHeapRegions
 .rodata.rpmsg_init_vdev.str1.4
                0x600195b4       0x13 ./rzg/linaro/open-amp/lib/rpmsg/rpmsg_virtio.o
 *fill*         0x600195c7        0x1 
 .rodata.remoteproc_load.str1.4
                0x600195c8      0x375 ./rzg/linaro/open-amp/lib/remoteproc/remoteproc.o
 *fill*         0x6001993d        0x3 
 .rodata.remoteproc_create_virtio.str1.4
                0x60019940        0xd ./rzg/linaro/open-amp/lib/remoteproc/remoteproc.o
 *fill*         0x6001994d        0x3 
 .rodata.__func__.0
                0x60019950       0x19 ./rzg/linaro/open-amp/lib/remoteproc/remoteproc.o
 *fill*         0x60019969        0x3 
 .rodata.__func__.1
                0x6001996c       0x19 ./rzg/linaro/open-amp/lib/remoteproc/remoteproc.o
 *fill*         0x60019985        0x3 
 .rodata.rproc_virtio_virtqueue_notify.str1.4
                0x60019988       0x56 ./rzg/linaro/open-amp/lib/remoteproc/remoteproc_virtio.o
 *fill*         0x600199de        0x2 
 .rodata.metal_io_write.part.0.str1.4
                0x600199e0       0x2a ./rzg/linaro/open-amp/lib/remoteproc/remoteproc_virtio.o
                                 0x2e (size before relaxing)
 *fill*         0x60019a0a        0x2 
 .rodata.__func__.0
                0x60019a0c        0xe ./rzg/linaro/open-amp/lib/remoteproc/remoteproc_virtio.o
 *fill*         0x60019a1a        0x2 
 .rodata.__func__.1
                0x60019a1c        0xf ./rzg/linaro/open-amp/lib/remoteproc/remoteproc_virtio.o
 *fill*         0x60019a2b        0x1 
 .rodata.__func__.2
                0x60019a2c       0x1e ./rzg/linaro/open-amp/lib/remoteproc/remoteproc_virtio.o
 *fill*         0x60019a4a        0x2 
 .rodata.remoteproc_virtio_dispatch_funcs
                0x60019a4c       0x24 ./rzg/linaro/open-amp/lib/remoteproc/remoteproc_virtio.o
                0x60019a4c                remoteproc_virtio_dispatch_funcs
 .rodata.find_rsc.str1.4
                0x60019a70       0x41 ./rzg/linaro/open-amp/lib/remoteproc/rsc_table_parser.o
 *fill*         0x60019ab1        0x3 
 .rodata.__func__.0
                0x60019ab4        0x9 ./rzg/linaro/open-amp/lib/remoteproc/rsc_table_parser.o
 *fill*         0x60019abd        0x3 
 .rodata.metal_irq_register.str1.4
                0x60019ac0      0x117 ./rzg/linaro/libmetal/lib/system/freertos/irq.o
 *fill*         0x60019bd7        0x1 
 .rodata.metal_irq_unregister.str1.4
                0x60019bd8       0xaf ./rzg/linaro/libmetal/lib/system/freertos/irq.o
 *fill*         0x60019c87        0x1 
 .rodata.__func__.0
                0x60019c88       0x15 ./rzg/linaro/libmetal/lib/system/freertos/irq.o
 *fill*         0x60019c9d        0x3 
 .rodata.__func__.1
                0x60019ca0       0x13 ./rzg/linaro/libmetal/lib/system/freertos/irq.o
 *fill*         0x60019cb3        0x1 
 .rodata.metal_bus_register.str1.4
                0x60019cb4       0x13 ./rzg/linaro/libmetal/lib/device.o
 *fill*         0x60019cc7        0x1 
 .rodata.metal_device_close.str1.4
                0x60019cc8       0x3c ./rzg/linaro/libmetal/lib/device.o
 .rodata.__func__.0
                0x60019d04       0x13 ./rzg/linaro/libmetal/lib/device.o
 .rodata.str1.4
                0x60019d17        0x8 ./rzg/linaro/libmetal/lib/device.o
 *fill*         0x60019d17        0x1 
 .rodata.prvTaskExitError.part.0.str1.4
                0x60019d18       0x43 ./rzg/fsp/src/rm_freertos_port/port.o
 *fill*         0x60019d5b        0x1 
 .rodata.vPortExitCritical.str1.4
                0x60019d5c       0x12 ./rzg/fsp/src/rm_freertos_port/port.o
 *fill*         0x60019d6e        0x2 
 .rodata.vPortSVCHandler_C.str1.4
                0x60019d70       0x15 ./rzg/fsp/src/rm_freertos_port/port.o
 *fill*         0x60019d85        0x3 
 .rodata.__func__.1
                0x60019d88       0x11 ./rzg/fsp/src/rm_freertos_port/port.o
 *fill*         0x60019d99        0x3 
 .rodata.__func__.2
                0x60019d9c       0x12 ./rzg/fsp/src/rm_freertos_port/port.o
 *fill*         0x60019dae        0x2 
 .rodata.__func__.3
                0x60019db0       0x12 ./rzg/fsp/src/rm_freertos_port/port.o
 *fill*         0x60019dc2        0x2 
 .rodata.g_uart_on_scif
                0x60019dc4       0x24 ./rzg/fsp/src/r_scif_uart/r_scif_uart.o
                0x60019dc4                g_uart_on_scif
 .rodata.g_mhu_ns_on_mhu_ns
                0x60019de8       0x14 ./rzg/fsp/src/r_mhu_ns/r_mhu_ns.o
                0x60019de8                g_mhu_ns_on_mhu_ns
 .rodata.g_timer_on_gtm
                0x60019dfc       0x34 ./rzg/fsp/src/r_gtm/r_gtm.o
                0x60019dfc                g_timer_on_gtm
 .rodata.g_bsp_leds
                0x60019e30        0x8 ./rzg/board/rzg2l_smarc/board_leds.o
                0x60019e30                g_bsp_leds
 .rodata.g_bsp_prv_leds
                0x60019e38        0x8 ./rzg/board/rzg2l_smarc/board_leds.o
 .rodata.pvPortMalloc.str1.4
                0x60019e40       0xb5 ./rzg/aws/amazon-freertos/freertos_kernel/portable/MemMang/heap_4.o
 *fill*         0x60019ef5        0x3 
 .rodata.vPortFree.str1.4
                0x60019ef8       0x5b ./rzg/aws/amazon-freertos/freertos_kernel/portable/MemMang/heap_4.o
 *fill*         0x60019f53        0x1 
 .rodata.__func__.0
                0x60019f54        0xa ./rzg/aws/amazon-freertos/freertos_kernel/portable/MemMang/heap_4.o
 *fill*         0x60019f5e        0x2 
 .rodata.__func__.1
                0x60019f60        0xd ./rzg/aws/amazon-freertos/freertos_kernel/portable/MemMang/heap_4.o
 *fill*         0x60019f6d        0x3 
 .rodata.xQueueGenericReset.str1.4
                0x60019f70       0x3b ./rzg/aws/amazon-freertos/freertos_kernel/queue.o
 *fill*         0x60019fab        0x1 
 .rodata.xQueueGenericCreateStatic.str1.4
                0x60019fac       0xdf ./rzg/aws/amazon-freertos/freertos_kernel/queue.o
 *fill*         0x6001a08b        0x1 
 .rodata.xQueueCreateCountingSemaphoreStatic.str1.4
                0x6001a08c       0x2d ./rzg/aws/amazon-freertos/freertos_kernel/queue.o
 *fill*         0x6001a0b9        0x3 
 .rodata.xQueueGenericSend.str1.4
                0x6001a0bc       0xfb ./rzg/aws/amazon-freertos/freertos_kernel/queue.o
 *fill*         0x6001a1b7        0x1 
 .rodata.xQueueGenericSendFromISR.str1.4
                0x6001a1b8       0x1e ./rzg/aws/amazon-freertos/freertos_kernel/queue.o
 *fill*         0x6001a1d6        0x2 
 .rodata.xQueueGiveFromISR.str1.4
                0x6001a1d8       0x7d ./rzg/aws/amazon-freertos/freertos_kernel/queue.o
 *fill*         0x6001a255        0x3 
 .rodata.xQueueReceive.str1.4
                0x6001a258       0x66 ./rzg/aws/amazon-freertos/freertos_kernel/queue.o
 *fill*         0x6001a2be        0x2 
 .rodata.__func__.2
                0x6001a2c0        0xd ./rzg/aws/amazon-freertos/freertos_kernel/queue.o
 *fill*         0x6001a2cd        0x3 
 .rodata.__func__.9
                0x6001a2d0       0x14 ./rzg/aws/amazon-freertos/freertos_kernel/queue.o
 .rodata.__func__.10
                0x6001a2e4        0xe ./rzg/aws/amazon-freertos/freertos_kernel/queue.o
 *fill*         0x6001a2f2        0x2 
 .rodata.__func__.11
                0x6001a2f4       0x12 ./rzg/aws/amazon-freertos/freertos_kernel/queue.o
 *fill*         0x6001a306        0x2 
 .rodata.__func__.12
                0x6001a308       0x19 ./rzg/aws/amazon-freertos/freertos_kernel/queue.o
 *fill*         0x6001a321        0x3 
 .rodata.__func__.13
                0x6001a324       0x12 ./rzg/aws/amazon-freertos/freertos_kernel/queue.o
 *fill*         0x6001a336        0x2 
 .rodata.__func__.14
                0x6001a338       0x1e ./rzg/aws/amazon-freertos/freertos_kernel/queue.o
 *fill*         0x6001a356        0x2 
 .rodata.__func__.15
                0x6001a358       0x24 ./rzg/aws/amazon-freertos/freertos_kernel/queue.o
 .rodata.__func__.17
                0x6001a37c       0x1a ./rzg/aws/amazon-freertos/freertos_kernel/queue.o
 *fill*         0x6001a396        0x2 
 .rodata.__func__.18
                0x6001a398       0x13 ./rzg/aws/amazon-freertos/freertos_kernel/queue.o
 *fill*         0x6001a3ab        0x1 
 .rodata.prvTaskIsTaskSuspended.part.0.str1.4
                0x6001a3ac       0x3b ./rzg/aws/amazon-freertos/freertos_kernel/tasks.o
 *fill*         0x6001a3e7        0x1 
 .rodata.prvIdleTask.str1.4
                0x6001a3e8       0x32 ./rzg/aws/amazon-freertos/freertos_kernel/tasks.o
 *fill*         0x6001a41a        0x2 
 .rodata.xTaskCreateStatic.str1.4
                0x6001a41c       0x55 ./rzg/aws/amazon-freertos/freertos_kernel/tasks.o
 *fill*         0x6001a471        0x3 
 .rodata.vTaskDelete.str1.4
                0x6001a474       0x1a ./rzg/aws/amazon-freertos/freertos_kernel/tasks.o
 *fill*         0x6001a48e        0x2 
 .rodata.vTaskStartScheduler.str1.4
                0x6001a490       0x1a ./rzg/aws/amazon-freertos/freertos_kernel/tasks.o
 *fill*         0x6001a4aa        0x2 
 .rodata.xTaskIncrementTick.str1.4
                0x6001a4ac       0x76 ./rzg/aws/amazon-freertos/freertos_kernel/tasks.o
 *fill*         0x6001a522        0x2 
 .rodata.xTaskResumeAll.str1.4
                0x6001a524       0x15 ./rzg/aws/amazon-freertos/freertos_kernel/tasks.o
 *fill*         0x6001a539        0x3 
 .rodata.vTaskSwitchContext.str1.4
                0x6001a53c        0xe ./rzg/aws/amazon-freertos/freertos_kernel/tasks.o
 *fill*         0x6001a54a        0x2 
 .rodata.vTaskPlaceOnEventList.str1.4
                0x6001a54c        0xc ./rzg/aws/amazon-freertos/freertos_kernel/tasks.o
 .rodata.xTaskRemoveFromEventList.str1.4
                0x6001a558        0xf ./rzg/aws/amazon-freertos/freertos_kernel/tasks.o
 *fill*         0x6001a567        0x1 
 .rodata.vTaskSetTimeOutState.str1.4
                0x6001a568        0xa ./rzg/aws/amazon-freertos/freertos_kernel/tasks.o
 *fill*         0x6001a572        0x2 
 .rodata.xTaskCheckForTimeOut.str1.4
                0x6001a574        0xe ./rzg/aws/amazon-freertos/freertos_kernel/tasks.o
 *fill*         0x6001a582        0x2 
 .rodata.__func__.7
                0x6001a584       0x15 ./rzg/aws/amazon-freertos/freertos_kernel/tasks.o
 *fill*         0x6001a599        0x3 
 .rodata.__func__.10
                0x6001a59c       0x19 ./rzg/aws/amazon-freertos/freertos_kernel/tasks.o
 *fill*         0x6001a5b5        0x3 
 .rodata.__func__.11
                0x6001a5b8       0x20 ./rzg/aws/amazon-freertos/freertos_kernel/tasks.o
 .rodata.__func__.13
                0x6001a5d8       0x16 ./rzg/aws/amazon-freertos/freertos_kernel/tasks.o
 *fill*         0x6001a5ee        0x2 
 .rodata.__func__.14
                0x6001a5f0       0x13 ./rzg/aws/amazon-freertos/freertos_kernel/tasks.o
 *fill*         0x6001a603        0x1 
 .rodata.__func__.15
                0x6001a604       0x13 ./rzg/aws/amazon-freertos/freertos_kernel/tasks.o
 *fill*         0x6001a617        0x1 
 .rodata.__func__.18
                0x6001a618        0xf ./rzg/aws/amazon-freertos/freertos_kernel/tasks.o
 *fill*         0x6001a627        0x1 
 .rodata.__func__.19
                0x6001a628       0x14 ./rzg/aws/amazon-freertos/freertos_kernel/tasks.o
 .rodata.__func__.25
                0x6001a63c        0xb ./rzg/aws/amazon-freertos/freertos_kernel/tasks.o
 *fill*         0x6001a647        0x1 
 .rodata.__func__.27
                0x6001a648        0xd ./rzg/aws/amazon-freertos/freertos_kernel/tasks.o
 *fill*         0x6001a655        0x3 
 .rodata.__func__.28
                0x6001a658        0xc ./rzg/aws/amazon-freertos/freertos_kernel/tasks.o
 .rodata.__func__.30
                0x6001a664       0x12 ./rzg/aws/amazon-freertos/freertos_kernel/tasks.o
 *fill*         0x6001a676        0x2 
 .rodata.prvCheckForValidListAndQueue.str1.4
                0x6001a678        0x5 ./rzg/aws/amazon-freertos/freertos_kernel/timers.o
 *fill*         0x6001a67d        0x3 
 .rodata.prvInitialiseNewTimer.part.0.str1.4
                0x6001a680       0x50 ./rzg/aws/amazon-freertos/freertos_kernel/timers.o
 .rodata.xTimerCreateTimerTask.str1.4
                0x6001a6d0       0x10 ./rzg/aws/amazon-freertos/freertos_kernel/timers.o
 .rodata.xTimerGenericCommand.str1.4
                0x6001a6e0        0x7 ./rzg/aws/amazon-freertos/freertos_kernel/timers.o
 *fill*         0x6001a6e7        0x1 
 .rodata.prvSwitchTimerLists.str1.4
                0x6001a6e8        0x8 ./rzg/aws/amazon-freertos/freertos_kernel/timers.o
 .rodata.prvTimerTask.str1.4
                0x6001a6f0       0x25 ./rzg/aws/amazon-freertos/freertos_kernel/timers.o
 *fill*         0x6001a715        0x3 
 .rodata.__func__.9
                0x6001a718       0x15 ./rzg/aws/amazon-freertos/freertos_kernel/timers.o
 *fill*         0x6001a72d        0x3 
 .rodata.__func__.14
                0x6001a730       0x1b ./rzg/aws/amazon-freertos/freertos_kernel/timers.o
 *fill*         0x6001a74b        0x1 
 .rodata.__func__.15
                0x6001a74c       0x17 ./rzg/aws/amazon-freertos/freertos_kernel/timers.o
 *fill*         0x6001a763        0x1 
 .rodata.__func__.16
                0x6001a764       0x14 ./rzg/aws/amazon-freertos/freertos_kernel/timers.o
 .rodata.__func__.18
                0x6001a778       0x16 ./rzg/aws/amazon-freertos/freertos_kernel/timers.o
 *fill*         0x6001a78e        0x2 
 .rodata.str1.4
                0x6001a790       0x3f /usr/lib/gcc/arm-none-eabi/12.2.1/../../../arm-none-eabi/lib/thumb/v8-m.main/nofp/libc_nano.a(lib_a-assert.o)
                                 0x43 (size before relaxing)
 *fill*         0x6001a7cf        0x1 
 .rodata        0x6001a7d0        0x4 /usr/lib/gcc/arm-none-eabi/12.2.1/../../../arm-none-eabi/lib/thumb/v8-m.main/nofp/libc_nano.a(lib_a-impure.o)
                0x6001a7d0                _global_impure_ptr
 .rodata.str1.4
                0x6001a7d4       0x13 /usr/lib/gcc/arm-none-eabi/12.2.1/../../../arm-none-eabi/lib/thumb/v8-m.main/nofp/libc_nano.a(lib_a-nano-vfprintf.o)
 *fill*         0x6001a7e7        0x1 
 .rodata.str1.4
                0x6001a7e8       0x25 /usr/lib/gcc/arm-none-eabi/12.2.1/../../../arm-none-eabi/lib/thumb/v8-m.main/nofp/libc_nano.a(lib_a-nano-vfprintf_i.o)
 *fill*         0x6001a80d        0x3 
 .rodata        0x6001a810       0x60 /usr/lib/gcc/arm-none-eabi/12.2.1/../../../arm-none-eabi/lib/thumb/v8-m.main/nofp/libc_nano.a(lib_a-findfp.o)
                0x6001a810                __sf_fake_stderr
                0x6001a830                __sf_fake_stdout
                0x6001a850                __sf_fake_stdin
 *(.eh_frame*)

.glue_7         0x6001a870        0x0
 .glue_7        0x6001a870        0x0 linker stubs

.glue_7t        0x6001a870        0x0
 .glue_7t       0x6001a870        0x0 linker stubs

.vfp11_veneer   0x6001a870        0x0
 .vfp11_veneer  0x6001a870        0x0 linker stubs

.v4_bx          0x6001a870        0x0
 .v4_bx         0x6001a870        0x0 linker stubs

.iplt           0x6001a870        0x0
 .iplt          0x6001a870        0x0 ./src/MainTask_entry.o

.rel.dyn        0x6001a870        0x0
 .rel.iplt      0x6001a870        0x0 ./src/MainTask_entry.o

.ARM.extab
 *(.ARM.extab* .gnu.linkonce.armextab.*)
                0x6001a870                        __exidx_start = .

.ARM.exidx
 *(.ARM.exidx* .gnu.linkonce.armexidx.*)
                0x6001a870                        __exidx_end = .
                0x6001a870                        __etext = .
                0x60110000                        __tz_RAM_N = ABSOLUTE (RAM_N_START)
                0x60110000                        . = __tz_RAM_N

.data           0x60110000      0x5c4 load address 0x6001a870
                0x60110000                        __data_start__ = .
                0x60110000                        . = ALIGN (0x4)
                0x60110000                        __Code_In_RAM_Start = .
 *(.code_in_ram*)
                0x60110000                        __Code_In_RAM_End = .
 *(vtable)
 *(.data.*)
 .data.vrinfo   0x60110000      0x1b0 ./src/platform_info.o
                0x60110000                vrinfo
 .data.ipi      0x601101b0       0x2c ./src/platform_info.o
                0x601101b0                ipi
 .data.resources_init
                0x601101dc       0xe0 ./src/rsc_table.o
                0x601101dc                resources_init
 .data.rzg2_proc_ops
                0x601102bc       0x24 ./src/rzg2_rproc.o
                0x601102bc                rzg2_proc_ops
 .data.flag_tend
                0x601102e0        0x4 ./src/serial.o
 .data.metal_dev_table
                0x601102e4      0x1c8 ./src/sys_init.o
                0x601102e4                metal_dev_table
 .data.g_uart2_baud_setting
                0x601104ac        0x3 ./rzg_gen/hal_data.o
                0x601104ac                g_uart2_baud_setting
 *fill*         0x601104af        0x1 
 .data.rsc_handler_table
                0x601104b0       0x18 ./rzg/linaro/open-amp/lib/remoteproc/rsc_table_parser.o
                0x601104b0                rsc_handler_table
 .data._irqs    0x601104c8        0xc ./rzg/linaro/libmetal/lib/system/freertos/irq.o
 .data.metal_generic_bus
                0x601104d4       0x2c ./rzg/linaro/libmetal/lib/device.o
                0x601104d4                metal_generic_bus
 .data.ulCriticalNesting
                0x60110500        0x4 ./rzg/fsp/src/rm_freertos_port/port.o
 *fill*         0x60110504        0x4 
 .data.g_clock_freq
                0x60110508       0x54 ./rzg/fsp/src/bsp/mcu/all/bsp_clocks.o
 .data.uxTopUsedPriority
                0x6011055c        0x4 ./rzg/aws/amazon-freertos/freertos_kernel/tasks.o
                0x6011055c                uxTopUsedPriority
 *(.data)
 .data          0x60110560       0x64 /usr/lib/gcc/arm-none-eabi/12.2.1/../../../arm-none-eabi/lib/thumb/v8-m.main/nofp/libc_nano.a(lib_a-impure.o)
                0x60110560                _impure_ptr
                0x601105c4                        . = ALIGN (0x4)
                [!provide]                        PROVIDE (__preinit_array_start = .)
 *(.preinit_array)
                [!provide]                        PROVIDE (__preinit_array_end = .)
                0x601105c4                        . = ALIGN (0x4)
                0x601105c4                        PROVIDE (__init_array_start = .)
 *(SORT_BY_NAME(.init_array.*))
 *(.init_array)
                0x601105c4                        PROVIDE (__init_array_end = .)
                0x601105c4                        . = ALIGN (0x4)
                [!provide]                        PROVIDE (__fini_array_start = .)
 *(SORT_BY_NAME(.fini_array.*))
 *(.fini_array)
                [!provide]                        PROVIDE (__fini_array_end = .)
 *(.jcr*)
                0x601105c4                        . = ALIGN (0x4)
                0x601105c4                        __data_end__ = .

.igot.plt       0x601105c4        0x0 load address 0x6001ae34
 .igot.plt      0x601105c4        0x0 ./src/MainTask_entry.o

.noinit         0x601105c4        0x4 load address 0x6001ae34
                0x601105c4                        . = ALIGN (0x4)
                0x601105c4                        __noinit_start = .
 *(.noinit*)
                0x601105c8                        . = ALIGN (0x8)
 *fill*         0x601105c4        0x4 
 *(.heap.*)
                0x601105c8                        __noinit_end = .

.bss            0x601105c8     0xb060 load address 0x6001ae34
                0x601105c8                        . = ALIGN (0x4)
                0x601105c8                        __bss_start__ = .
 *(.bss*)
 .bss.shpool    0x601105c8        0xc ./src/platform_info.o
 .bss.ipi_tsk_id
                0x601105d4        0x8 ./src/platform_info.o
 .bss.evt_svc_unbind
                0x601105dc        0x8 ./src/rpmsg_demo.o
 .bss.rp_ept    0x601105e4       0x80 ./src/rpmsg_demo.o
 .bss.xSerialPortInitialized
                0x60110664        0x4 ./src/serial.o
 .bss.MainTask  0x60110668        0x4 ./rzg_gen/MainTask.o
                0x60110668                MainTask
 .bss.blinky_thread
                0x6011066c        0x4 ./rzg_gen/blinky_thread.o
                0x6011066c                blinky_thread
 .bss.g_ioport_ctrl
                0x60110670        0x8 ./rzg_gen/common_data.o
                0x60110670                g_ioport_ctrl
 .bss.g_timer2_ctrl
                0x60110678       0x1c ./rzg_gen/hal_data.o
                0x60110678                g_timer2_ctrl
 .bss.g_mhu_ns0_ctrl
                0x60110694       0x28 ./rzg_gen/hal_data.o
                0x60110694                g_mhu_ns0_ctrl
 .bss.g_uart2_ctrl
                0x601106bc       0x30 ./rzg_gen/hal_data.o
                0x601106bc                g_uart2_ctrl
 .bss.uxTimerTaskStack.3
                0x601106ec      0x200 ./rzg_gen/main.o
 .bss.xTimerTaskTCB.2
                0x601108ec       0x60 ./rzg_gen/main.o
 .bss.uxIdleTaskStack.1
                0x6011094c      0x200 ./rzg_gen/main.o
 .bss.xIdleTaskTCB.0
                0x60110b4c       0x60 ./rzg_gen/main.o
 .bss.g_fsp_common_initialized_semaphore_memory
                0x60110bac       0x48 ./rzg_gen/main.o
                0x60110bac                g_fsp_common_initialized_semaphore_memory
 .bss.g_fsp_common_initialized_semaphore
                0x60110bf4        0x4 ./rzg_gen/main.o
                0x60110bf4                g_fsp_common_initialized_semaphore
 .bss.g_fsp_common_initialized
                0x60110bf8        0x1 ./rzg_gen/main.o
                0x60110bf8                g_fsp_common_initialized
 *fill*         0x60110bf9        0x3 
 .bss.g_fsp_common_thread_count
                0x60110bfc        0x4 ./rzg_gen/main.o
                0x60110bfc                g_fsp_common_thread_count
 .bss._metal    0x60110c00       0x20 ./rzg/linaro/libmetal/lib/system/freertos/init.o
                0x60110c00                _metal
 .bss.ucHeap    0x60110c20     0xa000 ./rzg/fsp/src/rm_freertos_port/port.o
                0x60110c20                ucHeap
 .bss.g_protect_pfswe_counter
                0x6011ac20        0x4 ./rzg/fsp/src/bsp/mcu/all/bsp_io.o
                0x6011ac20                g_protect_pfswe_counter
 .bss.gp_renesas_isr_context
                0x6011ac24      0x780 ./rzg/fsp/src/bsp/mcu/all/bsp_irq.o
                0x6011ac24                gp_renesas_isr_context
 .bss.current_heap_end.0
                0x6011b3a4        0x4 ./rzg/fsp/src/bsp/mcu/all/bsp_sbrk.o
 .bss.SystemCoreClock
                0x6011b3a8        0x4 ./rzg/fsp/src/bsp/cmsis/Device/RENESAS/Source/system.o
                0x6011b3a8                SystemCoreClock
 .bss.xBlockAllocatedBit
                0x6011b3ac        0x4 ./rzg/aws/amazon-freertos/freertos_kernel/portable/MemMang/heap_4.o
 .bss.xNumberOfSuccessfulFrees
                0x6011b3b0        0x4 ./rzg/aws/amazon-freertos/freertos_kernel/portable/MemMang/heap_4.o
 .bss.xNumberOfSuccessfulAllocations
                0x6011b3b4        0x4 ./rzg/aws/amazon-freertos/freertos_kernel/portable/MemMang/heap_4.o
 .bss.xMinimumEverFreeBytesRemaining
                0x6011b3b8        0x4 ./rzg/aws/amazon-freertos/freertos_kernel/portable/MemMang/heap_4.o
 .bss.xFreeBytesRemaining
                0x6011b3bc        0x4 ./rzg/aws/amazon-freertos/freertos_kernel/portable/MemMang/heap_4.o
 .bss.pxEnd     0x6011b3c0        0x4 ./rzg/aws/amazon-freertos/freertos_kernel/portable/MemMang/heap_4.o
 .bss.xStart    0x6011b3c4        0x8 ./rzg/aws/amazon-freertos/freertos_kernel/portable/MemMang/heap_4.o
 *fill*         0x6011b3cc        0x4 
 .bss.xQueueRegistry
                0x6011b3d0       0x50 ./rzg/aws/amazon-freertos/freertos_kernel/queue.o
                0x6011b3d0                xQueueRegistry
 .bss.uxSchedulerSuspended
                0x6011b420        0x4 ./rzg/aws/amazon-freertos/freertos_kernel/tasks.o
 .bss.xNextTaskUnblockTime
                0x6011b424        0x4 ./rzg/aws/amazon-freertos/freertos_kernel/tasks.o
 .bss.uxTaskNumber
                0x6011b428        0x4 ./rzg/aws/amazon-freertos/freertos_kernel/tasks.o
 .bss.xNumOfOverflows
                0x6011b42c        0x4 ./rzg/aws/amazon-freertos/freertos_kernel/tasks.o
 .bss.xYieldPending
                0x6011b430        0x4 ./rzg/aws/amazon-freertos/freertos_kernel/tasks.o
 .bss.xPendedTicks
                0x6011b434        0x4 ./rzg/aws/amazon-freertos/freertos_kernel/tasks.o
 .bss.xSchedulerRunning
                0x6011b438        0x4 ./rzg/aws/amazon-freertos/freertos_kernel/tasks.o
 .bss.uxTopReadyPriority
                0x6011b43c        0x4 ./rzg/aws/amazon-freertos/freertos_kernel/tasks.o
 .bss.xTickCount
                0x6011b440        0x4 ./rzg/aws/amazon-freertos/freertos_kernel/tasks.o
 .bss.uxCurrentNumberOfTasks
                0x6011b444        0x4 ./rzg/aws/amazon-freertos/freertos_kernel/tasks.o
 .bss.xSuspendedTaskList
                0x6011b448       0x14 ./rzg/aws/amazon-freertos/freertos_kernel/tasks.o
 .bss.uxDeletedTasksWaitingCleanUp
                0x6011b45c        0x4 ./rzg/aws/amazon-freertos/freertos_kernel/tasks.o
 .bss.xTasksWaitingTermination
                0x6011b460       0x14 ./rzg/aws/amazon-freertos/freertos_kernel/tasks.o
 .bss.xPendingReadyList
                0x6011b474       0x14 ./rzg/aws/amazon-freertos/freertos_kernel/tasks.o
 .bss.pxOverflowDelayedTaskList
                0x6011b488        0x4 ./rzg/aws/amazon-freertos/freertos_kernel/tasks.o
 .bss.pxDelayedTaskList
                0x6011b48c        0x4 ./rzg/aws/amazon-freertos/freertos_kernel/tasks.o
 .bss.xDelayedTaskList2
                0x6011b490       0x14 ./rzg/aws/amazon-freertos/freertos_kernel/tasks.o
 .bss.xDelayedTaskList1
                0x6011b4a4       0x14 ./rzg/aws/amazon-freertos/freertos_kernel/tasks.o
 .bss.pxReadyTasksLists
                0x6011b4b8       0x64 ./rzg/aws/amazon-freertos/freertos_kernel/tasks.o
 .bss.pxCurrentTCB
                0x6011b51c        0x4 ./rzg/aws/amazon-freertos/freertos_kernel/tasks.o
                0x6011b51c                pxCurrentTCB
 .bss.xStaticTimerQueue.12
                0x6011b520       0x48 ./rzg/aws/amazon-freertos/freertos_kernel/timers.o
 .bss.ucStaticTimerQueueStorage.13
                0x6011b568       0x78 ./rzg/aws/amazon-freertos/freertos_kernel/timers.o
 .bss.xLastTime.17
                0x6011b5e0        0x4 ./rzg/aws/amazon-freertos/freertos_kernel/timers.o
 .bss.xTimerTaskHandle
                0x6011b5e4        0x4 ./rzg/aws/amazon-freertos/freertos_kernel/timers.o
 .bss.xTimerQueue
                0x6011b5e8        0x4 ./rzg/aws/amazon-freertos/freertos_kernel/timers.o
 .bss.pxOverflowTimerList
                0x6011b5ec        0x4 ./rzg/aws/amazon-freertos/freertos_kernel/timers.o
 .bss.pxCurrentTimerList
                0x6011b5f0        0x4 ./rzg/aws/amazon-freertos/freertos_kernel/timers.o
 .bss.xActiveTimerList2
                0x6011b5f4       0x14 ./rzg/aws/amazon-freertos/freertos_kernel/timers.o
 .bss.xActiveTimerList1
                0x6011b608       0x14 ./rzg/aws/amazon-freertos/freertos_kernel/timers.o
 .bss           0x6011b61c        0x8 /usr/lib/gcc/arm-none-eabi/12.2.1/../../../arm-none-eabi/lib/thumb/v8-m.main/nofp/libc_nano.a(lib_a-nano-mallocr.o)
                0x6011b61c                __malloc_free_list
                0x6011b620                __malloc_sbrk_start
 .bss           0x6011b624        0x4 /usr/lib/gcc/arm-none-eabi/12.2.1/../../../arm-none-eabi/lib/thumb/v8-m.main/nofp/libc_nano.a(lib_a-reent.o)
                0x6011b624                errno
 *(COMMON)
                0x6011b628                        . = ALIGN (0x4)
                0x6011b628                        __bss_end__ = .

.heap           0x6011b628        0x0 load address 0x6001ae34
                0x6011b628                        . = ALIGN (0x8)
                0x6011b628                        __HeapBase = .
 *(.heap)
                0x6011b628                        __HeapLimit = .

.stack_dummy    0x6011b628      0x200 load address 0x6001ae34
                0x6011b628                        . = ALIGN (0x8)
                0x6011b628                        __StackLimit = .
 *(.stack)
 .stack         0x6011b628      0x200 ./rzg/fsp/src/bsp/cmsis/Device/RENESAS/Source/startup.o
                0x6011b828                        __StackTop = .
 *(.stack*)
                0x6011b828                        __StackTopAll = .
                [!provide]                        PROVIDE (__stack = __StackTopAll)
                0x6011b828                        __RAM_segment_used_end__ = ALIGN (__StackTopAll, 0x4)
                [!provide]                        PROVIDE (__tz_RAM_C = __RAM_segment_used_end__)
                0x62f00000                        __tz_OPENAMP_RSCTBL = ABSOLUTE (OPENAMP_RSCTBL_START)
                0x62f00000                        . = __tz_OPENAMP_RSCTBL

.resource_table
                0x62f00000       0xe0
                [!provide]                        PROVIDE (__rsctbl_start = .)
 *(.resource_table)
 .resource_table
                0x62f00000       0xe0 ./src/rsc_table.o
                0x62f00000                resources
                [!provide]                        PROVIDE (__rsctbl_end = .)
                0x62f01000                        __tz_MHU_SHMEM = ABSOLUTE (MHU_SHMEM_START)
                0x62f01000                        . = __tz_MHU_SHMEM

.mhu_shmem      0x62f01000     0x1000
                0x62f01000                        PROVIDE (__mhu_shmem_start = .)
                0x62f02000                        . = (. + MHU_SHMEM_LENGTH)
 *fill*         0x62f01000     0x1000 
                [!provide]                        PROVIDE (__mhu_shmem_end = .)
                0x63000000                        __tz_OPENAMP_VRING = ABSOLUTE (OPENAMP_VRING_START)
                0x63000000                        . = __tz_OPENAMP_VRING

.vring          0x63000000   0x800000
                [!provide]                        PROVIDE (__vring_start = .)
                0x63800000                        . = (. + OPENAMP_VRING_LENGTH)
 *fill*         0x63000000   0x800000 
                [!provide]                        PROVIDE (__vring_end = .)
OUTPUT(rzg2l_cm33_rpmsg_demo.elf elf32-littlearm)
LOAD linker stubs

.debug_info     0x00000000    0xb4377
 .debug_info    0x00000000      0xd8a ./src/MainTask_entry.o
 .debug_info    0x00000d8a    0x1b8f6 ./src/blinky_thread_entry.o
 .debug_info    0x0001c680      0xcb4 ./src/hal_entry.o
 .debug_info    0x0001d334     0x1181 ./src/mbed_printf_implementation.o
 .debug_info    0x0001e4b5      0x76a ./src/pin_data.o
 .debug_info    0x0001ec1f     0x1f64 ./src/platform_info.o
 .debug_info    0x00020b83      0x80a ./src/rpmsg_demo.o
 .debug_info    0x0002138d      0x392 ./src/rsc_table.o
 .debug_info    0x0002171f     0x2699 ./src/rzg2_rproc.o
 .debug_info    0x00023db8     0x23f2 ./src/serial.o
 .debug_info    0x000261aa      0x6d5 ./src/sys_init.o
 .debug_info    0x0002687f      0x261 ./rzg_gen/MainTask.o
 .debug_info    0x00026ae0      0x260 ./rzg_gen/blinky_thread.o
 .debug_info    0x00026d40     0x12e7 ./rzg_gen/common_data.o
 .debug_info    0x00028027     0x3980 ./rzg_gen/hal_data.o
 .debug_info    0x0002b9a7      0x736 ./rzg_gen/main.o
 .debug_info    0x0002c0dd       0xe2 ./rzg_gen/vector_data.o
 .debug_info    0x0002c1bf      0xbef ./rzg/linaro/open-amp/lib/virtio/virtio.o
 .debug_info    0x0002cdae     0x15a8 ./rzg/linaro/open-amp/lib/virtio/virtqueue.o
 .debug_info    0x0002e356     0x10a0 ./rzg/linaro/open-amp/lib/rpmsg/rpmsg.o
 .debug_info    0x0002f3f6     0x2800 ./rzg/linaro/open-amp/lib/rpmsg/rpmsg_virtio.o
 .debug_info    0x00031bf6     0x47d8 ./rzg/linaro/open-amp/lib/remoteproc/remoteproc.o
 .debug_info    0x000363ce     0x1c96 ./rzg/linaro/open-amp/lib/remoteproc/remoteproc_virtio.o
 .debug_info    0x00038064      0xe31 ./rzg/linaro/open-amp/lib/remoteproc/rsc_table_parser.o
 .debug_info    0x00038e95      0x1fb ./rzg/linaro/libmetal/lib/system/freertos/rzg2/sys.o
 .debug_info    0x00039090      0x584 ./rzg/linaro/libmetal/lib/system/freertos/device.o
 .debug_info    0x00039614      0x6b8 ./rzg/linaro/libmetal/lib/system/freertos/init.o
 .debug_info    0x00039ccc      0x336 ./rzg/linaro/libmetal/lib/system/freertos/io.o
 .debug_info    0x0003a002     0x1f88 ./rzg/linaro/libmetal/lib/system/freertos/irq.o
 .debug_info    0x0003bf8a      0xf14 ./rzg/linaro/libmetal/lib/device.o
 .debug_info    0x0003ce9e      0x354 ./rzg/linaro/libmetal/lib/init.o
 .debug_info    0x0003d1f2      0x6ee ./rzg/linaro/libmetal/lib/io.o
 .debug_info    0x0003d8e0      0x22f ./rzg/linaro/libmetal/lib/log.o
 .debug_info    0x0003db0f     0x3cb8 ./rzg/fsp/src/rm_freertos_port/port.o
 .debug_info    0x000417c7      0x1a0 ./rzg/fsp/src/rm_freertos_port/portasm.o
 .debug_info    0x00041967     0xf2d6 ./rzg/fsp/src/r_scif_uart/r_scif_uart.o
 .debug_info    0x00050c3d     0xc9df ./rzg/fsp/src/r_mhu_ns/r_mhu_ns.o
 .debug_info    0x0005d61c    0x1e745 ./rzg/fsp/src/r_ioport/r_ioport.o
 .debug_info    0x0007bd61     0xd008 ./rzg/fsp/src/r_gtm/r_gtm.o
 .debug_info    0x00088d69      0x201 ./rzg/fsp/src/bsp/mcu/all/bsp_clocks.o
 .debug_info    0x00088f6a      0x857 ./rzg/fsp/src/bsp/mcu/all/bsp_common.o
 .debug_info    0x000897c1       0x97 ./rzg/fsp/src/bsp/mcu/all/bsp_io.o
 .debug_info    0x00089858       0xb2 ./rzg/fsp/src/bsp/mcu/all/bsp_irq.o
 .debug_info    0x0008990a     0xb65c ./rzg/fsp/src/bsp/mcu/all/bsp_irqs.o
 .debug_info    0x00094f66      0x131 ./rzg/fsp/src/bsp/mcu/all/bsp_sbrk.o
 .debug_info    0x00095097      0x535 ./rzg/fsp/src/bsp/mcu/all/bsp_security.o
 .debug_info    0x000955cc      0x14b ./rzg/fsp/src/bsp/cmsis/Device/RENESAS/Source/startup.o
 .debug_info    0x00095717      0x132 ./rzg/fsp/src/bsp/cmsis/Device/RENESAS/Source/startups.o
 .debug_info    0x00095849      0x2c1 ./rzg/fsp/src/bsp/cmsis/Device/RENESAS/Source/system.o
 .debug_info    0x00095b0a     0x1d73 ./rzg/fsp/src/bsp/cmsis/Device/RENESAS/Source/systems.o
 .debug_info    0x0009787d       0x96 ./rzg/board/rzg2l_smarc/board_init.o
 .debug_info    0x00097913      0x5dc ./rzg/board/rzg2l_smarc/board_leds.o
 .debug_info    0x00097eef      0x663 ./rzg/aws/amazon-freertos/freertos_kernel/portable/MemMang/heap_4.o
 .debug_info    0x00098552      0x2cd ./rzg/aws/amazon-freertos/freertos_kernel/list.o
 .debug_info    0x0009881f     0x2cca ./rzg/aws/amazon-freertos/freertos_kernel/queue.o
 .debug_info    0x0009b4e9     0x3445 ./rzg/aws/amazon-freertos/freertos_kernel/tasks.o
 .debug_info    0x0009e92e     0x1ea5 ./rzg/aws/amazon-freertos/freertos_kernel/timers.o
 .debug_info    0x000a07d3      0x8b7 /usr/lib/gcc/arm-none-eabi/12.2.1/../../../arm-none-eabi/lib/thumb/v8-m.main/nofp/libc_nano.a(lib_a-assert.o)
 .debug_info    0x000a108a      0x7ae /usr/lib/gcc/arm-none-eabi/12.2.1/../../../arm-none-eabi/lib/thumb/v8-m.main/nofp/libc_nano.a(lib_a-errno.o)
 .debug_info    0x000a1838      0x902 /usr/lib/gcc/arm-none-eabi/12.2.1/../../../arm-none-eabi/lib/thumb/v8-m.main/nofp/libc_nano.a(lib_a-fprintf.o)
 .debug_info    0x000a213a      0x863 /usr/lib/gcc/arm-none-eabi/12.2.1/../../../arm-none-eabi/lib/thumb/v8-m.main/nofp/libc_nano.a(lib_a-impure.o)
 .debug_info    0x000a299d       0x26 /usr/lib/gcc/arm-none-eabi/12.2.1/../../../arm-none-eabi/lib/thumb/v8-m.main/nofp/libc_nano.a(lib_a-memcpy.o)
 .debug_info    0x000a29c3      0x137 /usr/lib/gcc/arm-none-eabi/12.2.1/../../../arm-none-eabi/lib/thumb/v8-m.main/nofp/libc_nano.a(lib_a-memset.o)
 .debug_info    0x000a2afa     0x115c /usr/lib/gcc/arm-none-eabi/12.2.1/../../../arm-none-eabi/lib/thumb/v8-m.main/nofp/libc_nano.a(lib_a-nano-vfprintf.o)
 .debug_info    0x000a3c56      0xe9e /usr/lib/gcc/arm-none-eabi/12.2.1/../../../arm-none-eabi/lib/thumb/v8-m.main/nofp/libc_nano.a(lib_a-nano-vfprintf_i.o)
 .debug_info    0x000a4af4       0x26 /usr/lib/gcc/arm-none-eabi/12.2.1/../../../arm-none-eabi/lib/thumb/v8-m.main/nofp/libc_nano.a(lib_a-strcmp.o)
 .debug_info    0x000a4b1a      0x110 /usr/lib/gcc/arm-none-eabi/12.2.1/../../../arm-none-eabi/lib/thumb/v8-m.main/nofp/libc_nano.a(lib_a-strncmp.o)
 .debug_info    0x000a4c2a      0x153 /usr/lib/gcc/arm-none-eabi/12.2.1/../../../arm-none-eabi/lib/thumb/v8-m.main/nofp/libc_nano.a(lib_a-strncpy.o)
 .debug_info    0x000a4d7d      0x998 /usr/lib/gcc/arm-none-eabi/12.2.1/../../../arm-none-eabi/lib/thumb/v8-m.main/nofp/libc_nano.a(lib_a-wbuf.o)
 .debug_info    0x000a5715      0x902 /usr/lib/gcc/arm-none-eabi/12.2.1/../../../arm-none-eabi/lib/thumb/v8-m.main/nofp/libc_nano.a(lib_a-wsetup.o)
 .debug_info    0x000a6017       0xcb /usr/lib/gcc/arm-none-eabi/12.2.1/../../../arm-none-eabi/lib/thumb/v8-m.main/nofp/libc_nano.a(lib_a-abort.o)
 .debug_info    0x000a60e2      0xb0e /usr/lib/gcc/arm-none-eabi/12.2.1/../../../arm-none-eabi/lib/thumb/v8-m.main/nofp/libc_nano.a(lib_a-fflush.o)
 .debug_info    0x000a6bf0      0xfae /usr/lib/gcc/arm-none-eabi/12.2.1/../../../arm-none-eabi/lib/thumb/v8-m.main/nofp/libc_nano.a(lib_a-findfp.o)
 .debug_info    0x000a7b9e      0xb5b /usr/lib/gcc/arm-none-eabi/12.2.1/../../../arm-none-eabi/lib/thumb/v8-m.main/nofp/libc_nano.a(lib_a-fvwrite.o)
 .debug_info    0x000a86f9      0x900 /usr/lib/gcc/arm-none-eabi/12.2.1/../../../arm-none-eabi/lib/thumb/v8-m.main/nofp/libc_nano.a(lib_a-fwalk.o)
 .debug_info    0x000a8ff9      0xc8a /usr/lib/gcc/arm-none-eabi/12.2.1/../../../arm-none-eabi/lib/thumb/v8-m.main/nofp/libc_nano.a(lib_a-makebuf.o)
 .debug_info    0x000a9c83      0x14e /usr/lib/gcc/arm-none-eabi/12.2.1/../../../arm-none-eabi/lib/thumb/v8-m.main/nofp/libc_nano.a(lib_a-memchr-stub.o)
 .debug_info    0x000a9dd1      0x152 /usr/lib/gcc/arm-none-eabi/12.2.1/../../../arm-none-eabi/lib/thumb/v8-m.main/nofp/libc_nano.a(lib_a-memmove.o)
 .debug_info    0x000a9f23      0x940 /usr/lib/gcc/arm-none-eabi/12.2.1/../../../arm-none-eabi/lib/thumb/v8-m.main/nofp/libc_nano.a(lib_a-nano-freer.o)
 .debug_info    0x000aa863      0xa0c /usr/lib/gcc/arm-none-eabi/12.2.1/../../../arm-none-eabi/lib/thumb/v8-m.main/nofp/libc_nano.a(lib_a-nano-mallocr.o)
 .debug_info    0x000ab26f      0x911 /usr/lib/gcc/arm-none-eabi/12.2.1/../../../arm-none-eabi/lib/thumb/v8-m.main/nofp/libc_nano.a(lib_a-nano-reallocr.o)
 .debug_info    0x000abb80      0x828 /usr/lib/gcc/arm-none-eabi/12.2.1/../../../arm-none-eabi/lib/thumb/v8-m.main/nofp/libc_nano.a(lib_a-sbrkr.o)
 .debug_info    0x000ac3a8      0xdc6 /usr/lib/gcc/arm-none-eabi/12.2.1/../../../arm-none-eabi/lib/thumb/v8-m.main/nofp/libc_nano.a(lib_a-signal.o)
 .debug_info    0x000ad16e      0x871 /usr/lib/gcc/arm-none-eabi/12.2.1/../../../arm-none-eabi/lib/thumb/v8-m.main/nofp/libc_nano.a(lib_a-signalr.o)
 .debug_info    0x000ad9df      0xabc /usr/lib/gcc/arm-none-eabi/12.2.1/../../../arm-none-eabi/lib/thumb/v8-m.main/nofp/libc_nano.a(lib_a-stdio.o)
 .debug_info    0x000ae49b      0x85a /usr/lib/gcc/arm-none-eabi/12.2.1/../../../arm-none-eabi/lib/thumb/v8-m.main/nofp/libc_nano.a(lib_a-writer.o)
 .debug_info    0x000aecf5      0x805 /usr/lib/gcc/arm-none-eabi/12.2.1/../../../arm-none-eabi/lib/thumb/v8-m.main/nofp/libc_nano.a(lib_a-closer.o)
 .debug_info    0x000af4fa      0xa1d /usr/lib/gcc/arm-none-eabi/12.2.1/../../../arm-none-eabi/lib/thumb/v8-m.main/nofp/libc_nano.a(lib_a-fstatr.o)
 .debug_info    0x000aff17      0x805 /usr/lib/gcc/arm-none-eabi/12.2.1/../../../arm-none-eabi/lib/thumb/v8-m.main/nofp/libc_nano.a(lib_a-isattyr.o)
 .debug_info    0x000b071c      0x83b /usr/lib/gcc/arm-none-eabi/12.2.1/../../../arm-none-eabi/lib/thumb/v8-m.main/nofp/libc_nano.a(lib_a-lseekr.o)
 .debug_info    0x000b0f57      0x7dc /usr/lib/gcc/arm-none-eabi/12.2.1/../../../arm-none-eabi/lib/thumb/v8-m.main/nofp/libc_nano.a(lib_a-mlock.o)
 .debug_info    0x000b1733      0x840 /usr/lib/gcc/arm-none-eabi/12.2.1/../../../arm-none-eabi/lib/thumb/v8-m.main/nofp/libc_nano.a(lib_a-nano-msizer.o)
 .debug_info    0x000b1f73      0x853 /usr/lib/gcc/arm-none-eabi/12.2.1/../../../arm-none-eabi/lib/thumb/v8-m.main/nofp/libc_nano.a(lib_a-readr.o)
 .debug_info    0x000b27c6      0xa7e /usr/lib/gcc/arm-none-eabi/12.2.1/../../../arm-none-eabi/lib/thumb/v8-m.main/nofp/libc_nano.a(lib_a-reent.o)
 .debug_info    0x000b3244       0xb1 /usr/lib/gcc/arm-none-eabi/12.2.1/../../../arm-none-eabi/lib/thumb/v8-m.main/nofp/libnosys.a(close.o)
 .debug_info    0x000b32f5      0x2cc /usr/lib/gcc/arm-none-eabi/12.2.1/../../../arm-none-eabi/lib/thumb/v8-m.main/nofp/libnosys.a(fstat.o)
 .debug_info    0x000b35c1       0x9c /usr/lib/gcc/arm-none-eabi/12.2.1/../../../arm-none-eabi/lib/thumb/v8-m.main/nofp/libnosys.a(getpid.o)
 .debug_info    0x000b365d       0xb1 /usr/lib/gcc/arm-none-eabi/12.2.1/../../../arm-none-eabi/lib/thumb/v8-m.main/nofp/libnosys.a(isatty.o)
 .debug_info    0x000b370e       0xbf /usr/lib/gcc/arm-none-eabi/12.2.1/../../../arm-none-eabi/lib/thumb/v8-m.main/nofp/libnosys.a(kill.o)
 .debug_info    0x000b37cd       0xd3 /usr/lib/gcc/arm-none-eabi/12.2.1/../../../arm-none-eabi/lib/thumb/v8-m.main/nofp/libnosys.a(lseek.o)
 .debug_info    0x000b38a0       0xd9 /usr/lib/gcc/arm-none-eabi/12.2.1/../../../arm-none-eabi/lib/thumb/v8-m.main/nofp/libnosys.a(read.o)
 .debug_info    0x000b3979       0xd9 /usr/lib/gcc/arm-none-eabi/12.2.1/../../../arm-none-eabi/lib/thumb/v8-m.main/nofp/libnosys.a(write.o)
 .debug_info    0x000b3a52       0xa3 /usr/lib/gcc/arm-none-eabi/12.2.1/../../../arm-none-eabi/lib/thumb/v8-m.main/nofp/libnosys.a(_exit.o)
 .debug_info    0x000b3af5       0xb6 /usr/lib/gcc/arm-none-eabi/12.2.1/thumb/v8-m.main/nofp/libgcc.a(_arm_addsubdf3.o)
 .debug_info    0x000b3bab       0xc0 /usr/lib/gcc/arm-none-eabi/12.2.1/thumb/v8-m.main/nofp/libgcc.a(_arm_cmpdf2.o)
 .debug_info    0x000b3c6b      0x329 /usr/lib/gcc/arm-none-eabi/12.2.1/thumb/v8-m.main/nofp/libgcc.a(_fixdfdi.o)
 .debug_info    0x000b3f94      0x36e /usr/lib/gcc/arm-none-eabi/12.2.1/thumb/v8-m.main/nofp/libgcc.a(_fixunsdfdi.o)
 .debug_info    0x000b4302       0x3c /usr/lib/gcc/arm-none-eabi/12.2.1/thumb/v8-m.main/nofp/libgcc.a(_arm_muldf3.o)
 .debug_info    0x000b433e       0x39 /usr/lib/gcc/arm-none-eabi/12.2.1/thumb/v8-m.main/nofp/libgcc.a(_arm_fixunsdfsi.o)

.debug_abbrev   0x00000000     0xddf4
 .debug_abbrev  0x00000000      0x243 ./src/MainTask_entry.o
 .debug_abbrev  0x00000243      0x30d ./src/blinky_thread_entry.o
 .debug_abbrev  0x00000550      0x13a ./src/hal_entry.o
 .debug_abbrev  0x0000068a      0x2f0 ./src/mbed_printf_implementation.o
 .debug_abbrev  0x0000097a       0xdc ./src/pin_data.o
 .debug_abbrev  0x00000a56      0x433 ./src/platform_info.o
 .debug_abbrev  0x00000e89      0x247 ./src/rpmsg_demo.o
 .debug_abbrev  0x000010d0      0x197 ./src/rsc_table.o
 .debug_abbrev  0x00001267      0x4bc ./src/rzg2_rproc.o
 .debug_abbrev  0x00001723      0x41c ./src/serial.o
 .debug_abbrev  0x00001b3f      0x1ed ./src/sys_init.o
 .debug_abbrev  0x00001d2c      0x17e ./rzg_gen/MainTask.o
 .debug_abbrev  0x00001eaa      0x17e ./rzg_gen/blinky_thread.o
 .debug_abbrev  0x00002028      0x186 ./rzg_gen/common_data.o
 .debug_abbrev  0x000021ae      0x2d9 ./rzg_gen/hal_data.o
 .debug_abbrev  0x00002487      0x245 ./rzg_gen/main.o
 .debug_abbrev  0x000026cc       0x7d ./rzg_gen/vector_data.o
 .debug_abbrev  0x00002749      0x28f ./rzg/linaro/open-amp/lib/virtio/virtio.o
 .debug_abbrev  0x000029d8      0x447 ./rzg/linaro/open-amp/lib/virtio/virtqueue.o
 .debug_abbrev  0x00002e1f      0x3d6 ./rzg/linaro/open-amp/lib/rpmsg/rpmsg.o
 .debug_abbrev  0x000031f5      0x56f ./rzg/linaro/open-amp/lib/rpmsg/rpmsg_virtio.o
 .debug_abbrev  0x00003764      0x6d1 ./rzg/linaro/open-amp/lib/remoteproc/remoteproc.o
 .debug_abbrev  0x00003e35      0x524 ./rzg/linaro/open-amp/lib/remoteproc/remoteproc_virtio.o
 .debug_abbrev  0x00004359      0x332 ./rzg/linaro/open-amp/lib/remoteproc/rsc_table_parser.o
 .debug_abbrev  0x0000468b      0x197 ./rzg/linaro/libmetal/lib/system/freertos/rzg2/sys.o
 .debug_abbrev  0x00004822      0x156 ./rzg/linaro/libmetal/lib/system/freertos/device.o
 .debug_abbrev  0x00004978      0x192 ./rzg/linaro/libmetal/lib/system/freertos/init.o
 .debug_abbrev  0x00004b0a      0x154 ./rzg/linaro/libmetal/lib/system/freertos/io.o
 .debug_abbrev  0x00004c5e      0x49f ./rzg/linaro/libmetal/lib/system/freertos/irq.o
 .debug_abbrev  0x000050fd      0x38a ./rzg/linaro/libmetal/lib/device.o
 .debug_abbrev  0x00005487      0x1e9 ./rzg/linaro/libmetal/lib/init.o
 .debug_abbrev  0x00005670      0x21b ./rzg/linaro/libmetal/lib/io.o
 .debug_abbrev  0x0000588b      0x114 ./rzg/linaro/libmetal/lib/log.o
 .debug_abbrev  0x0000599f      0x58e ./rzg/fsp/src/rm_freertos_port/port.o
 .debug_abbrev  0x00005f2d       0xbf ./rzg/fsp/src/rm_freertos_port/portasm.o
 .debug_abbrev  0x00005fec      0x6ac ./rzg/fsp/src/r_scif_uart/r_scif_uart.o
 .debug_abbrev  0x00006698      0x58d ./rzg/fsp/src/r_mhu_ns/r_mhu_ns.o
 .debug_abbrev  0x00006c25      0x4a1 ./rzg/fsp/src/r_ioport/r_ioport.o
 .debug_abbrev  0x000070c6      0x582 ./rzg/fsp/src/r_gtm/r_gtm.o
 .debug_abbrev  0x00007648      0x136 ./rzg/fsp/src/bsp/mcu/all/bsp_clocks.o
 .debug_abbrev  0x0000777e      0x1ba ./rzg/fsp/src/bsp/mcu/all/bsp_common.o
 .debug_abbrev  0x00007938       0x5e ./rzg/fsp/src/bsp/mcu/all/bsp_io.o
 .debug_abbrev  0x00007996       0x7f ./rzg/fsp/src/bsp/mcu/all/bsp_irq.o
 .debug_abbrev  0x00007a15      0x1ca ./rzg/fsp/src/bsp/mcu/all/bsp_irqs.o
 .debug_abbrev  0x00007bdf       0xcc ./rzg/fsp/src/bsp/mcu/all/bsp_sbrk.o
 .debug_abbrev  0x00007cab      0x1c0 ./rzg/fsp/src/bsp/mcu/all/bsp_security.o
 .debug_abbrev  0x00007e6b      0x115 ./rzg/fsp/src/bsp/cmsis/Device/RENESAS/Source/startup.o
 .debug_abbrev  0x00007f80      0x100 ./rzg/fsp/src/bsp/cmsis/Device/RENESAS/Source/startups.o
 .debug_abbrev  0x00008080      0x1bb ./rzg/fsp/src/bsp/cmsis/Device/RENESAS/Source/system.o
 .debug_abbrev  0x0000823b      0x264 ./rzg/fsp/src/bsp/cmsis/Device/RENESAS/Source/systems.o
 .debug_abbrev  0x0000849f       0x5c ./rzg/board/rzg2l_smarc/board_init.o
 .debug_abbrev  0x000084fb       0xcd ./rzg/board/rzg2l_smarc/board_leds.o
 .debug_abbrev  0x000085c8      0x2b5 ./rzg/aws/amazon-freertos/freertos_kernel/portable/MemMang/heap_4.o
 .debug_abbrev  0x0000887d      0x106 ./rzg/aws/amazon-freertos/freertos_kernel/list.o
 .debug_abbrev  0x00008983      0x47f ./rzg/aws/amazon-freertos/freertos_kernel/queue.o
 .debug_abbrev  0x00008e02      0x50c ./rzg/aws/amazon-freertos/freertos_kernel/tasks.o
 .debug_abbrev  0x0000930e      0x3cb ./rzg/aws/amazon-freertos/freertos_kernel/timers.o
 .debug_abbrev  0x000096d9      0x1c3 /usr/lib/gcc/arm-none-eabi/12.2.1/../../../arm-none-eabi/lib/thumb/v8-m.main/nofp/libc_nano.a(lib_a-assert.o)
 .debug_abbrev  0x0000989c      0x157 /usr/lib/gcc/arm-none-eabi/12.2.1/../../../arm-none-eabi/lib/thumb/v8-m.main/nofp/libc_nano.a(lib_a-errno.o)
 .debug_abbrev  0x000099f3      0x213 /usr/lib/gcc/arm-none-eabi/12.2.1/../../../arm-none-eabi/lib/thumb/v8-m.main/nofp/libc_nano.a(lib_a-fprintf.o)
 .debug_abbrev  0x00009c06      0x151 /usr/lib/gcc/arm-none-eabi/12.2.1/../../../arm-none-eabi/lib/thumb/v8-m.main/nofp/libc_nano.a(lib_a-impure.o)
 .debug_abbrev  0x00009d57       0x14 /usr/lib/gcc/arm-none-eabi/12.2.1/../../../arm-none-eabi/lib/thumb/v8-m.main/nofp/libc_nano.a(lib_a-memcpy.o)
 .debug_abbrev  0x00009d6b       0xb4 /usr/lib/gcc/arm-none-eabi/12.2.1/../../../arm-none-eabi/lib/thumb/v8-m.main/nofp/libc_nano.a(lib_a-memset.o)
 .debug_abbrev  0x00009e1f      0x353 /usr/lib/gcc/arm-none-eabi/12.2.1/../../../arm-none-eabi/lib/thumb/v8-m.main/nofp/libc_nano.a(lib_a-nano-vfprintf.o)
 .debug_abbrev  0x0000a172      0x25c /usr/lib/gcc/arm-none-eabi/12.2.1/../../../arm-none-eabi/lib/thumb/v8-m.main/nofp/libc_nano.a(lib_a-nano-vfprintf_i.o)
 .debug_abbrev  0x0000a3ce       0x14 /usr/lib/gcc/arm-none-eabi/12.2.1/../../../arm-none-eabi/lib/thumb/v8-m.main/nofp/libc_nano.a(lib_a-strcmp.o)
 .debug_abbrev  0x0000a3e2       0x8f /usr/lib/gcc/arm-none-eabi/12.2.1/../../../arm-none-eabi/lib/thumb/v8-m.main/nofp/libc_nano.a(lib_a-strncmp.o)
 .debug_abbrev  0x0000a471       0xbb /usr/lib/gcc/arm-none-eabi/12.2.1/../../../arm-none-eabi/lib/thumb/v8-m.main/nofp/libc_nano.a(lib_a-strncpy.o)
 .debug_abbrev  0x0000a52c      0x21f /usr/lib/gcc/arm-none-eabi/12.2.1/../../../arm-none-eabi/lib/thumb/v8-m.main/nofp/libc_nano.a(lib_a-wbuf.o)
 .debug_abbrev  0x0000a74b      0x1d4 /usr/lib/gcc/arm-none-eabi/12.2.1/../../../arm-none-eabi/lib/thumb/v8-m.main/nofp/libc_nano.a(lib_a-wsetup.o)
 .debug_abbrev  0x0000a91f       0x80 /usr/lib/gcc/arm-none-eabi/12.2.1/../../../arm-none-eabi/lib/thumb/v8-m.main/nofp/libc_nano.a(lib_a-abort.o)
 .debug_abbrev  0x0000a99f      0x2e5 /usr/lib/gcc/arm-none-eabi/12.2.1/../../../arm-none-eabi/lib/thumb/v8-m.main/nofp/libc_nano.a(lib_a-fflush.o)
 .debug_abbrev  0x0000ac84      0x3cd /usr/lib/gcc/arm-none-eabi/12.2.1/../../../arm-none-eabi/lib/thumb/v8-m.main/nofp/libc_nano.a(lib_a-findfp.o)
 .debug_abbrev  0x0000b051      0x1f4 /usr/lib/gcc/arm-none-eabi/12.2.1/../../../arm-none-eabi/lib/thumb/v8-m.main/nofp/libc_nano.a(lib_a-fvwrite.o)
 .debug_abbrev  0x0000b245      0x197 /usr/lib/gcc/arm-none-eabi/12.2.1/../../../arm-none-eabi/lib/thumb/v8-m.main/nofp/libc_nano.a(lib_a-fwalk.o)
 .debug_abbrev  0x0000b3dc      0x278 /usr/lib/gcc/arm-none-eabi/12.2.1/../../../arm-none-eabi/lib/thumb/v8-m.main/nofp/libc_nano.a(lib_a-makebuf.o)
 .debug_abbrev  0x0000b654       0xd4 /usr/lib/gcc/arm-none-eabi/12.2.1/../../../arm-none-eabi/lib/thumb/v8-m.main/nofp/libc_nano.a(lib_a-memchr-stub.o)
 .debug_abbrev  0x0000b728       0xc0 /usr/lib/gcc/arm-none-eabi/12.2.1/../../../arm-none-eabi/lib/thumb/v8-m.main/nofp/libc_nano.a(lib_a-memmove.o)
 .debug_abbrev  0x0000b7e8      0x245 /usr/lib/gcc/arm-none-eabi/12.2.1/../../../arm-none-eabi/lib/thumb/v8-m.main/nofp/libc_nano.a(lib_a-nano-freer.o)
 .debug_abbrev  0x0000ba2d      0x290 /usr/lib/gcc/arm-none-eabi/12.2.1/../../../arm-none-eabi/lib/thumb/v8-m.main/nofp/libc_nano.a(lib_a-nano-mallocr.o)
 .debug_abbrev  0x0000bcbd      0x1d6 /usr/lib/gcc/arm-none-eabi/12.2.1/../../../arm-none-eabi/lib/thumb/v8-m.main/nofp/libc_nano.a(lib_a-nano-reallocr.o)
 .debug_abbrev  0x0000be93      0x1d6 /usr/lib/gcc/arm-none-eabi/12.2.1/../../../arm-none-eabi/lib/thumb/v8-m.main/nofp/libc_nano.a(lib_a-sbrkr.o)
 .debug_abbrev  0x0000c069      0x2ba /usr/lib/gcc/arm-none-eabi/12.2.1/../../../arm-none-eabi/lib/thumb/v8-m.main/nofp/libc_nano.a(lib_a-signal.o)
 .debug_abbrev  0x0000c323      0x1db /usr/lib/gcc/arm-none-eabi/12.2.1/../../../arm-none-eabi/lib/thumb/v8-m.main/nofp/libc_nano.a(lib_a-signalr.o)
 .debug_abbrev  0x0000c4fe      0x1fb /usr/lib/gcc/arm-none-eabi/12.2.1/../../../arm-none-eabi/lib/thumb/v8-m.main/nofp/libc_nano.a(lib_a-stdio.o)
 .debug_abbrev  0x0000c6f9      0x1b0 /usr/lib/gcc/arm-none-eabi/12.2.1/../../../arm-none-eabi/lib/thumb/v8-m.main/nofp/libc_nano.a(lib_a-writer.o)
 .debug_abbrev  0x0000c8a9      0x1ab /usr/lib/gcc/arm-none-eabi/12.2.1/../../../arm-none-eabi/lib/thumb/v8-m.main/nofp/libc_nano.a(lib_a-closer.o)
 .debug_abbrev  0x0000ca54      0x1bf /usr/lib/gcc/arm-none-eabi/12.2.1/../../../arm-none-eabi/lib/thumb/v8-m.main/nofp/libc_nano.a(lib_a-fstatr.o)
 .debug_abbrev  0x0000cc13      0x1ab /usr/lib/gcc/arm-none-eabi/12.2.1/../../../arm-none-eabi/lib/thumb/v8-m.main/nofp/libc_nano.a(lib_a-isattyr.o)
 .debug_abbrev  0x0000cdbe      0x1bf /usr/lib/gcc/arm-none-eabi/12.2.1/../../../arm-none-eabi/lib/thumb/v8-m.main/nofp/libc_nano.a(lib_a-lseekr.o)
 .debug_abbrev  0x0000cf7d      0x189 /usr/lib/gcc/arm-none-eabi/12.2.1/../../../arm-none-eabi/lib/thumb/v8-m.main/nofp/libc_nano.a(lib_a-mlock.o)
 .debug_abbrev  0x0000d106      0x191 /usr/lib/gcc/arm-none-eabi/12.2.1/../../../arm-none-eabi/lib/thumb/v8-m.main/nofp/libc_nano.a(lib_a-nano-msizer.o)
 .debug_abbrev  0x0000d297      0x1ab /usr/lib/gcc/arm-none-eabi/12.2.1/../../../arm-none-eabi/lib/thumb/v8-m.main/nofp/libc_nano.a(lib_a-readr.o)
 .debug_abbrev  0x0000d442      0x265 /usr/lib/gcc/arm-none-eabi/12.2.1/../../../arm-none-eabi/lib/thumb/v8-m.main/nofp/libc_nano.a(lib_a-reent.o)
 .debug_abbrev  0x0000d6a7       0x6d /usr/lib/gcc/arm-none-eabi/12.2.1/../../../arm-none-eabi/lib/thumb/v8-m.main/nofp/libnosys.a(close.o)
 .debug_abbrev  0x0000d714       0xcc /usr/lib/gcc/arm-none-eabi/12.2.1/../../../arm-none-eabi/lib/thumb/v8-m.main/nofp/libnosys.a(fstat.o)
 .debug_abbrev  0x0000d7e0       0x59 /usr/lib/gcc/arm-none-eabi/12.2.1/../../../arm-none-eabi/lib/thumb/v8-m.main/nofp/libnosys.a(getpid.o)
 .debug_abbrev  0x0000d839       0x6d /usr/lib/gcc/arm-none-eabi/12.2.1/../../../arm-none-eabi/lib/thumb/v8-m.main/nofp/libnosys.a(isatty.o)
 .debug_abbrev  0x0000d8a6       0x7e /usr/lib/gcc/arm-none-eabi/12.2.1/../../../arm-none-eabi/lib/thumb/v8-m.main/nofp/libnosys.a(kill.o)
 .debug_abbrev  0x0000d924       0x92 /usr/lib/gcc/arm-none-eabi/12.2.1/../../../arm-none-eabi/lib/thumb/v8-m.main/nofp/libnosys.a(lseek.o)
 .debug_abbrev  0x0000d9b6       0x9b /usr/lib/gcc/arm-none-eabi/12.2.1/../../../arm-none-eabi/lib/thumb/v8-m.main/nofp/libnosys.a(read.o)
 .debug_abbrev  0x0000da51       0x9b /usr/lib/gcc/arm-none-eabi/12.2.1/../../../arm-none-eabi/lib/thumb/v8-m.main/nofp/libnosys.a(write.o)
 .debug_abbrev  0x0000daec       0x6a /usr/lib/gcc/arm-none-eabi/12.2.1/../../../arm-none-eabi/lib/thumb/v8-m.main/nofp/libnosys.a(_exit.o)
 .debug_abbrev  0x0000db56       0x21 /usr/lib/gcc/arm-none-eabi/12.2.1/thumb/v8-m.main/nofp/libgcc.a(_arm_addsubdf3.o)
 .debug_abbrev  0x0000db77       0x21 /usr/lib/gcc/arm-none-eabi/12.2.1/thumb/v8-m.main/nofp/libgcc.a(_arm_cmpdf2.o)
 .debug_abbrev  0x0000db98      0x119 /usr/lib/gcc/arm-none-eabi/12.2.1/thumb/v8-m.main/nofp/libgcc.a(_fixdfdi.o)
 .debug_abbrev  0x0000dcb1      0x103 /usr/lib/gcc/arm-none-eabi/12.2.1/thumb/v8-m.main/nofp/libgcc.a(_fixunsdfdi.o)
 .debug_abbrev  0x0000ddb4       0x1f /usr/lib/gcc/arm-none-eabi/12.2.1/thumb/v8-m.main/nofp/libgcc.a(_arm_muldf3.o)
 .debug_abbrev  0x0000ddd3       0x21 /usr/lib/gcc/arm-none-eabi/12.2.1/thumb/v8-m.main/nofp/libgcc.a(_arm_fixunsdfsi.o)

.debug_loc      0x00000000    0x202da
 .debug_loc     0x00000000       0xe1 ./src/MainTask_entry.o
 .debug_loc     0x000000e1      0x262 ./src/blinky_thread_entry.o
 .debug_loc     0x00000343       0x25 ./src/hal_entry.o
 .debug_loc     0x00000368     0x1e88 ./src/mbed_printf_implementation.o
 .debug_loc     0x000021f0      0x9d1 ./src/platform_info.o
 .debug_loc     0x00002bc1      0x4ab ./src/rpmsg_demo.o
 .debug_loc     0x0000306c       0x25 ./src/rsc_table.o
 .debug_loc     0x00003091      0x652 ./src/rzg2_rproc.o
 .debug_loc     0x000036e3      0x1fa ./src/serial.o
 .debug_loc     0x000038dd       0x55 ./src/sys_init.o
 .debug_loc     0x00003932       0x54 ./rzg_gen/MainTask.o
 .debug_loc     0x00003986       0x54 ./rzg_gen/blinky_thread.o
 .debug_loc     0x000039da       0x22 ./rzg_gen/main.o
 .debug_loc     0x000039fc      0x372 ./rzg/linaro/open-amp/lib/virtio/virtio.o
 .debug_loc     0x00003d6e     0x1366 ./rzg/linaro/open-amp/lib/virtio/virtqueue.o
 .debug_loc     0x000050d4      0xda0 ./rzg/linaro/open-amp/lib/rpmsg/rpmsg.o
 .debug_loc     0x00005e74     0x1aa0 ./rzg/linaro/open-amp/lib/rpmsg/rpmsg_virtio.o
 .debug_loc     0x00007914     0x3d97 ./rzg/linaro/open-amp/lib/remoteproc/remoteproc.o
 .debug_loc     0x0000b6ab     0x13b2 ./rzg/linaro/open-amp/lib/remoteproc/remoteproc_virtio.o
 .debug_loc     0x0000ca5d      0x7aa ./rzg/linaro/open-amp/lib/remoteproc/rsc_table_parser.o
 .debug_loc     0x0000d207       0x25 ./rzg/linaro/libmetal/lib/system/freertos/rzg2/sys.o
 .debug_loc     0x0000d22c       0x7f ./rzg/linaro/libmetal/lib/system/freertos/device.o
 .debug_loc     0x0000d2ab       0x25 ./rzg/linaro/libmetal/lib/system/freertos/init.o
 .debug_loc     0x0000d2d0       0xc4 ./rzg/linaro/libmetal/lib/system/freertos/io.o
 .debug_loc     0x0000d394      0xd34 ./rzg/linaro/libmetal/lib/system/freertos/irq.o
 .debug_loc     0x0000e0c8      0x9d9 ./rzg/linaro/libmetal/lib/device.o
 .debug_loc     0x0000eaa1       0x54 ./rzg/linaro/libmetal/lib/init.o
 .debug_loc     0x0000eaf5      0xbbe ./rzg/linaro/libmetal/lib/io.o
 .debug_loc     0x0000f6b3      0x32a ./rzg/fsp/src/rm_freertos_port/port.o
 .debug_loc     0x0000f9dd     0x1c86 ./rzg/fsp/src/r_scif_uart/r_scif_uart.o
 .debug_loc     0x00011663      0x4a5 ./rzg/fsp/src/r_mhu_ns/r_mhu_ns.o
 .debug_loc     0x00011b08     0x24fd ./rzg/fsp/src/r_ioport/r_ioport.o
 .debug_loc     0x00014005      0x5f4 ./rzg/fsp/src/r_gtm/r_gtm.o
 .debug_loc     0x000145f9       0x25 ./rzg/fsp/src/bsp/mcu/all/bsp_clocks.o
 .debug_loc     0x0001461e       0x44 ./rzg/fsp/src/bsp/mcu/all/bsp_common.o
 .debug_loc     0x00014662       0x3f ./rzg/fsp/src/bsp/mcu/all/bsp_irqs.o
 .debug_loc     0x000146a1       0xf3 ./rzg/fsp/src/bsp/mcu/all/bsp_sbrk.o
 .debug_loc     0x00014794       0x38 ./rzg/fsp/src/bsp/mcu/all/bsp_security.o
 .debug_loc     0x000147cc       0x65 ./rzg/fsp/src/bsp/cmsis/Device/RENESAS/Source/system.o
 .debug_loc     0x00014831      0x493 ./rzg/aws/amazon-freertos/freertos_kernel/portable/MemMang/heap_4.o
 .debug_loc     0x00014cc4       0xbc ./rzg/aws/amazon-freertos/freertos_kernel/list.o
 .debug_loc     0x00014d80     0x2acf ./rzg/aws/amazon-freertos/freertos_kernel/queue.o
 .debug_loc     0x0001784f     0x2706 ./rzg/aws/amazon-freertos/freertos_kernel/tasks.o
 .debug_loc     0x00019f55     0x1482 ./rzg/aws/amazon-freertos/freertos_kernel/timers.o
 .debug_loc     0x0001b3d7      0x185 /usr/lib/gcc/arm-none-eabi/12.2.1/../../../arm-none-eabi/lib/thumb/v8-m.main/nofp/libc_nano.a(lib_a-assert.o)
 .debug_loc     0x0001b55c       0xa6 /usr/lib/gcc/arm-none-eabi/12.2.1/../../../arm-none-eabi/lib/thumb/v8-m.main/nofp/libc_nano.a(lib_a-fprintf.o)
 .debug_loc     0x0001b602      0x22c /usr/lib/gcc/arm-none-eabi/12.2.1/../../../arm-none-eabi/lib/thumb/v8-m.main/nofp/libc_nano.a(lib_a-memset.o)
 .debug_loc     0x0001b82e      0x7b9 /usr/lib/gcc/arm-none-eabi/12.2.1/../../../arm-none-eabi/lib/thumb/v8-m.main/nofp/libc_nano.a(lib_a-nano-vfprintf.o)
 .debug_loc     0x0001bfe7      0x5d3 /usr/lib/gcc/arm-none-eabi/12.2.1/../../../arm-none-eabi/lib/thumb/v8-m.main/nofp/libc_nano.a(lib_a-nano-vfprintf_i.o)
 .debug_loc     0x0001c5ba      0x171 /usr/lib/gcc/arm-none-eabi/12.2.1/../../../arm-none-eabi/lib/thumb/v8-m.main/nofp/libc_nano.a(lib_a-strncmp.o)
 .debug_loc     0x0001c72b      0x1a8 /usr/lib/gcc/arm-none-eabi/12.2.1/../../../arm-none-eabi/lib/thumb/v8-m.main/nofp/libc_nano.a(lib_a-strncpy.o)
 .debug_loc     0x0001c8d3      0x193 /usr/lib/gcc/arm-none-eabi/12.2.1/../../../arm-none-eabi/lib/thumb/v8-m.main/nofp/libc_nano.a(lib_a-wbuf.o)
 .debug_loc     0x0001ca66       0xb7 /usr/lib/gcc/arm-none-eabi/12.2.1/../../../arm-none-eabi/lib/thumb/v8-m.main/nofp/libc_nano.a(lib_a-wsetup.o)
 .debug_loc     0x0001cb1d      0x505 /usr/lib/gcc/arm-none-eabi/12.2.1/../../../arm-none-eabi/lib/thumb/v8-m.main/nofp/libc_nano.a(lib_a-fflush.o)
 .debug_loc     0x0001d022      0x3d6 /usr/lib/gcc/arm-none-eabi/12.2.1/../../../arm-none-eabi/lib/thumb/v8-m.main/nofp/libc_nano.a(lib_a-findfp.o)
 .debug_loc     0x0001d3f8      0x711 /usr/lib/gcc/arm-none-eabi/12.2.1/../../../arm-none-eabi/lib/thumb/v8-m.main/nofp/libc_nano.a(lib_a-fvwrite.o)
 .debug_loc     0x0001db09      0x1d9 /usr/lib/gcc/arm-none-eabi/12.2.1/../../../arm-none-eabi/lib/thumb/v8-m.main/nofp/libc_nano.a(lib_a-fwalk.o)
 .debug_loc     0x0001dce2      0x31a /usr/lib/gcc/arm-none-eabi/12.2.1/../../../arm-none-eabi/lib/thumb/v8-m.main/nofp/libc_nano.a(lib_a-makebuf.o)
 .debug_loc     0x0001dffc      0x1da /usr/lib/gcc/arm-none-eabi/12.2.1/../../../arm-none-eabi/lib/thumb/v8-m.main/nofp/libc_nano.a(lib_a-memchr-stub.o)
 .debug_loc     0x0001e1d6      0x335 /usr/lib/gcc/arm-none-eabi/12.2.1/../../../arm-none-eabi/lib/thumb/v8-m.main/nofp/libc_nano.a(lib_a-memmove.o)
 .debug_loc     0x0001e50b      0x257 /usr/lib/gcc/arm-none-eabi/12.2.1/../../../arm-none-eabi/lib/thumb/v8-m.main/nofp/libc_nano.a(lib_a-nano-freer.o)
 .debug_loc     0x0001e762      0x3c0 /usr/lib/gcc/arm-none-eabi/12.2.1/../../../arm-none-eabi/lib/thumb/v8-m.main/nofp/libc_nano.a(lib_a-nano-mallocr.o)
 .debug_loc     0x0001eb22      0x133 /usr/lib/gcc/arm-none-eabi/12.2.1/../../../arm-none-eabi/lib/thumb/v8-m.main/nofp/libc_nano.a(lib_a-nano-reallocr.o)
 .debug_loc     0x0001ec55       0x6c /usr/lib/gcc/arm-none-eabi/12.2.1/../../../arm-none-eabi/lib/thumb/v8-m.main/nofp/libc_nano.a(lib_a-sbrkr.o)
 .debug_loc     0x0001ecc1      0x967 /usr/lib/gcc/arm-none-eabi/12.2.1/../../../arm-none-eabi/lib/thumb/v8-m.main/nofp/libc_nano.a(lib_a-signal.o)
 .debug_loc     0x0001f628       0xd0 /usr/lib/gcc/arm-none-eabi/12.2.1/../../../arm-none-eabi/lib/thumb/v8-m.main/nofp/libc_nano.a(lib_a-signalr.o)
 .debug_loc     0x0001f6f8      0x3a0 /usr/lib/gcc/arm-none-eabi/12.2.1/../../../arm-none-eabi/lib/thumb/v8-m.main/nofp/libc_nano.a(lib_a-stdio.o)
 .debug_loc     0x0001fa98       0xf7 /usr/lib/gcc/arm-none-eabi/12.2.1/../../../arm-none-eabi/lib/thumb/v8-m.main/nofp/libc_nano.a(lib_a-writer.o)
 .debug_loc     0x0001fb8f       0x6c /usr/lib/gcc/arm-none-eabi/12.2.1/../../../arm-none-eabi/lib/thumb/v8-m.main/nofp/libc_nano.a(lib_a-closer.o)
 .debug_loc     0x0001fbfb       0xab /usr/lib/gcc/arm-none-eabi/12.2.1/../../../arm-none-eabi/lib/thumb/v8-m.main/nofp/libc_nano.a(lib_a-fstatr.o)
 .debug_loc     0x0001fca6       0x6c /usr/lib/gcc/arm-none-eabi/12.2.1/../../../arm-none-eabi/lib/thumb/v8-m.main/nofp/libc_nano.a(lib_a-isattyr.o)
 .debug_loc     0x0001fd12       0xf7 /usr/lib/gcc/arm-none-eabi/12.2.1/../../../arm-none-eabi/lib/thumb/v8-m.main/nofp/libc_nano.a(lib_a-lseekr.o)
 .debug_loc     0x0001fe09       0x86 /usr/lib/gcc/arm-none-eabi/12.2.1/../../../arm-none-eabi/lib/thumb/v8-m.main/nofp/libc_nano.a(lib_a-nano-msizer.o)
 .debug_loc     0x0001fe8f       0xf7 /usr/lib/gcc/arm-none-eabi/12.2.1/../../../arm-none-eabi/lib/thumb/v8-m.main/nofp/libc_nano.a(lib_a-readr.o)
 .debug_loc     0x0001ff86      0x1cd /usr/lib/gcc/arm-none-eabi/12.2.1/../../../arm-none-eabi/lib/thumb/v8-m.main/nofp/libc_nano.a(lib_a-reent.o)
 .debug_loc     0x00020153       0x25 /usr/lib/gcc/arm-none-eabi/12.2.1/../../../arm-none-eabi/lib/thumb/v8-m.main/nofp/libnosys.a(close.o)
 .debug_loc     0x00020178       0x25 /usr/lib/gcc/arm-none-eabi/12.2.1/../../../arm-none-eabi/lib/thumb/v8-m.main/nofp/libnosys.a(fstat.o)
 .debug_loc     0x0002019d       0x25 /usr/lib/gcc/arm-none-eabi/12.2.1/../../../arm-none-eabi/lib/thumb/v8-m.main/nofp/libnosys.a(isatty.o)
 .debug_loc     0x000201c2       0x25 /usr/lib/gcc/arm-none-eabi/12.2.1/../../../arm-none-eabi/lib/thumb/v8-m.main/nofp/libnosys.a(kill.o)
 .debug_loc     0x000201e7       0x4a /usr/lib/gcc/arm-none-eabi/12.2.1/../../../arm-none-eabi/lib/thumb/v8-m.main/nofp/libnosys.a(lseek.o)
 .debug_loc     0x00020231       0x4a /usr/lib/gcc/arm-none-eabi/12.2.1/../../../arm-none-eabi/lib/thumb/v8-m.main/nofp/libnosys.a(read.o)
 .debug_loc     0x0002027b       0x4a /usr/lib/gcc/arm-none-eabi/12.2.1/../../../arm-none-eabi/lib/thumb/v8-m.main/nofp/libnosys.a(write.o)
 .debug_loc     0x000202c5       0x15 /usr/lib/gcc/arm-none-eabi/12.2.1/../../../arm-none-eabi/lib/thumb/v8-m.main/nofp/libnosys.a(_exit.o)

.debug_aranges  0x00000000     0x1790
 .debug_aranges
                0x00000000       0x20 ./src/MainTask_entry.o
 .debug_aranges
                0x00000020       0x20 ./src/blinky_thread_entry.o
 .debug_aranges
                0x00000040       0x20 ./src/hal_entry.o
 .debug_aranges
                0x00000060       0x28 ./src/mbed_printf_implementation.o
 .debug_aranges
                0x00000088       0x18 ./src/pin_data.o
 .debug_aranges
                0x000000a0       0x48 ./src/platform_info.o
 .debug_aranges
                0x000000e8       0x40 ./src/rpmsg_demo.o
 .debug_aranges
                0x00000128       0x28 ./src/rsc_table.o
 .debug_aranges
                0x00000150       0x40 ./src/rzg2_rproc.o
 .debug_aranges
                0x00000190       0x50 ./src/serial.o
 .debug_aranges
                0x000001e0       0x28 ./src/sys_init.o
 .debug_aranges
                0x00000208       0x28 ./rzg_gen/MainTask.o
 .debug_aranges
                0x00000230       0x28 ./rzg_gen/blinky_thread.o
 .debug_aranges
                0x00000258       0x20 ./rzg_gen/common_data.o
 .debug_aranges
                0x00000278       0x38 ./rzg_gen/hal_data.o
 .debug_aranges
                0x000002b0       0x40 ./rzg_gen/main.o
 .debug_aranges
                0x000002f0       0x18 ./rzg_gen/vector_data.o
 .debug_aranges
                0x00000308       0x30 ./rzg/linaro/open-amp/lib/virtio/virtio.o
 .debug_aranges
                0x00000338       0x80 ./rzg/linaro/open-amp/lib/virtio/virtqueue.o
 .debug_aranges
                0x000003b8       0x50 ./rzg/linaro/open-amp/lib/rpmsg/rpmsg.o
 .debug_aranges
                0x00000408       0x68 ./rzg/linaro/open-amp/lib/rpmsg/rpmsg_virtio.o
 .debug_aranges
                0x00000470       0xc0 ./rzg/linaro/open-amp/lib/remoteproc/remoteproc.o
 .debug_aranges
                0x00000530       0x98 ./rzg/linaro/open-amp/lib/remoteproc/remoteproc_virtio.o
 .debug_aranges
                0x000005c8       0x50 ./rzg/linaro/open-amp/lib/remoteproc/rsc_table_parser.o
 .debug_aranges
                0x00000618       0x48 ./rzg/linaro/libmetal/lib/system/freertos/rzg2/sys.o
 .debug_aranges
                0x00000660       0x20 ./rzg/linaro/libmetal/lib/system/freertos/device.o
 .debug_aranges
                0x00000680       0x28 ./rzg/linaro/libmetal/lib/system/freertos/init.o
 .debug_aranges
                0x000006a8       0x20 ./rzg/linaro/libmetal/lib/system/freertos/io.o
 .debug_aranges
                0x000006c8       0x50 ./rzg/linaro/libmetal/lib/system/freertos/irq.o
 .debug_aranges
                0x00000718       0x60 ./rzg/linaro/libmetal/lib/device.o
 .debug_aranges
                0x00000778       0x28 ./rzg/linaro/libmetal/lib/init.o
 .debug_aranges
                0x000007a0       0x38 ./rzg/linaro/libmetal/lib/io.o
 .debug_aranges
                0x000007d8       0x40 ./rzg/linaro/libmetal/lib/log.o
 .debug_aranges
                0x00000818       0xa0 ./rzg/fsp/src/rm_freertos_port/port.o
 .debug_aranges
                0x000008b8       0x70 ./rzg/fsp/src/rm_freertos_port/portasm.o
 .debug_aranges
                0x00000928       0xa0 ./rzg/fsp/src/r_scif_uart/r_scif_uart.o
 .debug_aranges
                0x000009c8       0x58 ./rzg/fsp/src/r_mhu_ns/r_mhu_ns.o
 .debug_aranges
                0x00000a20       0xc8 ./rzg/fsp/src/r_ioport/r_ioport.o
 .debug_aranges
                0x00000ae8       0x88 ./rzg/fsp/src/r_gtm/r_gtm.o
 .debug_aranges
                0x00000b70       0x38 ./rzg/fsp/src/bsp/mcu/all/bsp_clocks.o
 .debug_aranges
                0x00000ba8       0x30 ./rzg/fsp/src/bsp/mcu/all/bsp_common.o
 .debug_aranges
                0x00000bd8       0x18 ./rzg/fsp/src/bsp/mcu/all/bsp_io.o
 .debug_aranges
                0x00000bf0       0x20 ./rzg/fsp/src/bsp/mcu/all/bsp_irq.o
 .debug_aranges
                0x00000c10       0x20 ./rzg/fsp/src/bsp/mcu/all/bsp_irqs.o
 .debug_aranges
                0x00000c30       0x20 ./rzg/fsp/src/bsp/mcu/all/bsp_sbrk.o
 .debug_aranges
                0x00000c50       0x30 ./rzg/fsp/src/bsp/mcu/all/bsp_security.o
 .debug_aranges
                0x00000c80       0x30 ./rzg/fsp/src/bsp/cmsis/Device/RENESAS/Source/startup.o
 .debug_aranges
                0x00000cb0       0x38 ./rzg/fsp/src/bsp/cmsis/Device/RENESAS/Source/startups.o
 .debug_aranges
                0x00000ce8       0x28 ./rzg/fsp/src/bsp/cmsis/Device/RENESAS/Source/system.o
 .debug_aranges
                0x00000d10       0x28 ./rzg/fsp/src/bsp/cmsis/Device/RENESAS/Source/systems.o
 .debug_aranges
                0x00000d38       0x20 ./rzg/board/rzg2l_smarc/board_init.o
 .debug_aranges
                0x00000d58       0x18 ./rzg/board/rzg2l_smarc/board_leds.o
 .debug_aranges
                0x00000d70       0x50 ./rzg/aws/amazon-freertos/freertos_kernel/portable/MemMang/heap_4.o
 .debug_aranges
                0x00000dc0       0x40 ./rzg/aws/amazon-freertos/freertos_kernel/list.o
 .debug_aranges
                0x00000e00       0xe0 ./rzg/aws/amazon-freertos/freertos_kernel/queue.o
 .debug_aranges
                0x00000ee0      0x198 ./rzg/aws/amazon-freertos/freertos_kernel/tasks.o
 .debug_aranges
                0x00001078       0xa0 ./rzg/aws/amazon-freertos/freertos_kernel/timers.o
 .debug_aranges
                0x00001118       0x20 /usr/lib/gcc/arm-none-eabi/12.2.1/../../../arm-none-eabi/lib/thumb/v8-m.main/nofp/libc_nano.a(lib_a-assert.o)
 .debug_aranges
                0x00001138       0x20 /usr/lib/gcc/arm-none-eabi/12.2.1/../../../arm-none-eabi/lib/thumb/v8-m.main/nofp/libc_nano.a(lib_a-errno.o)
 .debug_aranges
                0x00001158       0x20 /usr/lib/gcc/arm-none-eabi/12.2.1/../../../arm-none-eabi/lib/thumb/v8-m.main/nofp/libc_nano.a(lib_a-fprintf.o)
 .debug_aranges
                0x00001178       0x18 /usr/lib/gcc/arm-none-eabi/12.2.1/../../../arm-none-eabi/lib/thumb/v8-m.main/nofp/libc_nano.a(lib_a-impure.o)
 .debug_aranges
                0x00001190       0x20 /usr/lib/gcc/arm-none-eabi/12.2.1/../../../arm-none-eabi/lib/thumb/v8-m.main/nofp/libc_nano.a(lib_a-memcpy.o)
 .debug_aranges
                0x000011b0       0x20 /usr/lib/gcc/arm-none-eabi/12.2.1/../../../arm-none-eabi/lib/thumb/v8-m.main/nofp/libc_nano.a(lib_a-memset.o)
 .debug_aranges
                0x000011d0       0x20 /usr/lib/gcc/arm-none-eabi/12.2.1/../../../arm-none-eabi/lib/thumb/v8-m.main/nofp/libc_nano.a(lib_a-nano-vfprintf.o)
 .debug_aranges
                0x000011f0       0x20 /usr/lib/gcc/arm-none-eabi/12.2.1/../../../arm-none-eabi/lib/thumb/v8-m.main/nofp/libc_nano.a(lib_a-nano-vfprintf_i.o)
 .debug_aranges
                0x00001210       0x20 /usr/lib/gcc/arm-none-eabi/12.2.1/../../../arm-none-eabi/lib/thumb/v8-m.main/nofp/libc_nano.a(lib_a-strcmp.o)
 .debug_aranges
                0x00001230       0x20 /usr/lib/gcc/arm-none-eabi/12.2.1/../../../arm-none-eabi/lib/thumb/v8-m.main/nofp/libc_nano.a(lib_a-strncmp.o)
 .debug_aranges
                0x00001250       0x20 /usr/lib/gcc/arm-none-eabi/12.2.1/../../../arm-none-eabi/lib/thumb/v8-m.main/nofp/libc_nano.a(lib_a-strncpy.o)
 .debug_aranges
                0x00001270       0x20 /usr/lib/gcc/arm-none-eabi/12.2.1/../../../arm-none-eabi/lib/thumb/v8-m.main/nofp/libc_nano.a(lib_a-wbuf.o)
 .debug_aranges
                0x00001290       0x20 /usr/lib/gcc/arm-none-eabi/12.2.1/../../../arm-none-eabi/lib/thumb/v8-m.main/nofp/libc_nano.a(lib_a-wsetup.o)
 .debug_aranges
                0x000012b0       0x20 /usr/lib/gcc/arm-none-eabi/12.2.1/../../../arm-none-eabi/lib/thumb/v8-m.main/nofp/libc_nano.a(lib_a-abort.o)
 .debug_aranges
                0x000012d0       0x20 /usr/lib/gcc/arm-none-eabi/12.2.1/../../../arm-none-eabi/lib/thumb/v8-m.main/nofp/libc_nano.a(lib_a-fflush.o)
 .debug_aranges
                0x000012f0       0x20 /usr/lib/gcc/arm-none-eabi/12.2.1/../../../arm-none-eabi/lib/thumb/v8-m.main/nofp/libc_nano.a(lib_a-findfp.o)
 .debug_aranges
                0x00001310       0x20 /usr/lib/gcc/arm-none-eabi/12.2.1/../../../arm-none-eabi/lib/thumb/v8-m.main/nofp/libc_nano.a(lib_a-fvwrite.o)
 .debug_aranges
                0x00001330       0x20 /usr/lib/gcc/arm-none-eabi/12.2.1/../../../arm-none-eabi/lib/thumb/v8-m.main/nofp/libc_nano.a(lib_a-fwalk.o)
 .debug_aranges
                0x00001350       0x20 /usr/lib/gcc/arm-none-eabi/12.2.1/../../../arm-none-eabi/lib/thumb/v8-m.main/nofp/libc_nano.a(lib_a-makebuf.o)
 .debug_aranges
                0x00001370       0x20 /usr/lib/gcc/arm-none-eabi/12.2.1/../../../arm-none-eabi/lib/thumb/v8-m.main/nofp/libc_nano.a(lib_a-memchr-stub.o)
 .debug_aranges
                0x00001390       0x20 /usr/lib/gcc/arm-none-eabi/12.2.1/../../../arm-none-eabi/lib/thumb/v8-m.main/nofp/libc_nano.a(lib_a-memmove.o)
 .debug_aranges
                0x000013b0       0x20 /usr/lib/gcc/arm-none-eabi/12.2.1/../../../arm-none-eabi/lib/thumb/v8-m.main/nofp/libc_nano.a(lib_a-nano-freer.o)
 .debug_aranges
                0x000013d0       0x20 /usr/lib/gcc/arm-none-eabi/12.2.1/../../../arm-none-eabi/lib/thumb/v8-m.main/nofp/libc_nano.a(lib_a-nano-mallocr.o)
 .debug_aranges
                0x000013f0       0x20 /usr/lib/gcc/arm-none-eabi/12.2.1/../../../arm-none-eabi/lib/thumb/v8-m.main/nofp/libc_nano.a(lib_a-nano-reallocr.o)
 .debug_aranges
                0x00001410       0x20 /usr/lib/gcc/arm-none-eabi/12.2.1/../../../arm-none-eabi/lib/thumb/v8-m.main/nofp/libc_nano.a(lib_a-sbrkr.o)
 .debug_aranges
                0x00001430       0x20 /usr/lib/gcc/arm-none-eabi/12.2.1/../../../arm-none-eabi/lib/thumb/v8-m.main/nofp/libc_nano.a(lib_a-signal.o)
 .debug_aranges
                0x00001450       0x20 /usr/lib/gcc/arm-none-eabi/12.2.1/../../../arm-none-eabi/lib/thumb/v8-m.main/nofp/libc_nano.a(lib_a-signalr.o)
 .debug_aranges
                0x00001470       0x20 /usr/lib/gcc/arm-none-eabi/12.2.1/../../../arm-none-eabi/lib/thumb/v8-m.main/nofp/libc_nano.a(lib_a-stdio.o)
 .debug_aranges
                0x00001490       0x20 /usr/lib/gcc/arm-none-eabi/12.2.1/../../../arm-none-eabi/lib/thumb/v8-m.main/nofp/libc_nano.a(lib_a-writer.o)
 .debug_aranges
                0x000014b0       0x20 /usr/lib/gcc/arm-none-eabi/12.2.1/../../../arm-none-eabi/lib/thumb/v8-m.main/nofp/libc_nano.a(lib_a-closer.o)
 .debug_aranges
                0x000014d0       0x20 /usr/lib/gcc/arm-none-eabi/12.2.1/../../../arm-none-eabi/lib/thumb/v8-m.main/nofp/libc_nano.a(lib_a-fstatr.o)
 .debug_aranges
                0x000014f0       0x20 /usr/lib/gcc/arm-none-eabi/12.2.1/../../../arm-none-eabi/lib/thumb/v8-m.main/nofp/libc_nano.a(lib_a-isattyr.o)
 .debug_aranges
                0x00001510       0x20 /usr/lib/gcc/arm-none-eabi/12.2.1/../../../arm-none-eabi/lib/thumb/v8-m.main/nofp/libc_nano.a(lib_a-lseekr.o)
 .debug_aranges
                0x00001530       0x20 /usr/lib/gcc/arm-none-eabi/12.2.1/../../../arm-none-eabi/lib/thumb/v8-m.main/nofp/libc_nano.a(lib_a-mlock.o)
 .debug_aranges
                0x00001550       0x20 /usr/lib/gcc/arm-none-eabi/12.2.1/../../../arm-none-eabi/lib/thumb/v8-m.main/nofp/libc_nano.a(lib_a-nano-msizer.o)
 .debug_aranges
                0x00001570       0x20 /usr/lib/gcc/arm-none-eabi/12.2.1/../../../arm-none-eabi/lib/thumb/v8-m.main/nofp/libc_nano.a(lib_a-readr.o)
 .debug_aranges
                0x00001590       0x20 /usr/lib/gcc/arm-none-eabi/12.2.1/../../../arm-none-eabi/lib/thumb/v8-m.main/nofp/libc_nano.a(lib_a-reent.o)
 .debug_aranges
                0x000015b0       0x20 /usr/lib/gcc/arm-none-eabi/12.2.1/../../../arm-none-eabi/lib/thumb/v8-m.main/nofp/libnosys.a(close.o)
 .debug_aranges
                0x000015d0       0x20 /usr/lib/gcc/arm-none-eabi/12.2.1/../../../arm-none-eabi/lib/thumb/v8-m.main/nofp/libnosys.a(fstat.o)
 .debug_aranges
                0x000015f0       0x20 /usr/lib/gcc/arm-none-eabi/12.2.1/../../../arm-none-eabi/lib/thumb/v8-m.main/nofp/libnosys.a(getpid.o)
 .debug_aranges
                0x00001610       0x20 /usr/lib/gcc/arm-none-eabi/12.2.1/../../../arm-none-eabi/lib/thumb/v8-m.main/nofp/libnosys.a(isatty.o)
 .debug_aranges
                0x00001630       0x20 /usr/lib/gcc/arm-none-eabi/12.2.1/../../../arm-none-eabi/lib/thumb/v8-m.main/nofp/libnosys.a(kill.o)
 .debug_aranges
                0x00001650       0x20 /usr/lib/gcc/arm-none-eabi/12.2.1/../../../arm-none-eabi/lib/thumb/v8-m.main/nofp/libnosys.a(lseek.o)
 .debug_aranges
                0x00001670       0x20 /usr/lib/gcc/arm-none-eabi/12.2.1/../../../arm-none-eabi/lib/thumb/v8-m.main/nofp/libnosys.a(read.o)
 .debug_aranges
                0x00001690       0x20 /usr/lib/gcc/arm-none-eabi/12.2.1/../../../arm-none-eabi/lib/thumb/v8-m.main/nofp/libnosys.a(write.o)
 .debug_aranges
                0x000016b0       0x20 /usr/lib/gcc/arm-none-eabi/12.2.1/../../../arm-none-eabi/lib/thumb/v8-m.main/nofp/libnosys.a(_exit.o)
 .debug_aranges
                0x000016d0       0x20 /usr/lib/gcc/arm-none-eabi/12.2.1/thumb/v8-m.main/nofp/libgcc.a(_arm_addsubdf3.o)
 .debug_aranges
                0x000016f0       0x20 /usr/lib/gcc/arm-none-eabi/12.2.1/thumb/v8-m.main/nofp/libgcc.a(_arm_cmpdf2.o)
 .debug_aranges
                0x00001710       0x20 /usr/lib/gcc/arm-none-eabi/12.2.1/thumb/v8-m.main/nofp/libgcc.a(_fixdfdi.o)
 .debug_aranges
                0x00001730       0x20 /usr/lib/gcc/arm-none-eabi/12.2.1/thumb/v8-m.main/nofp/libgcc.a(_fixunsdfdi.o)
 .debug_aranges
                0x00001750       0x20 /usr/lib/gcc/arm-none-eabi/12.2.1/thumb/v8-m.main/nofp/libgcc.a(_arm_muldf3.o)
 .debug_aranges
                0x00001770       0x20 /usr/lib/gcc/arm-none-eabi/12.2.1/thumb/v8-m.main/nofp/libgcc.a(_arm_fixunsdfsi.o)

.debug_ranges   0x00000000     0x4430
 .debug_ranges  0x00000000       0x10 ./src/MainTask_entry.o
 .debug_ranges  0x00000010       0x70 ./src/blinky_thread_entry.o
 .debug_ranges  0x00000080       0x10 ./src/hal_entry.o
 .debug_ranges  0x00000090      0x600 ./src/mbed_printf_implementation.o
 .debug_ranges  0x00000690      0x100 ./src/platform_info.o
 .debug_ranges  0x00000790       0x30 ./src/rpmsg_demo.o
 .debug_ranges  0x000007c0       0x18 ./src/rsc_table.o
 .debug_ranges  0x000007d8      0x150 ./src/rzg2_rproc.o
 .debug_ranges  0x00000928       0x58 ./src/serial.o
 .debug_ranges  0x00000980       0x18 ./src/sys_init.o
 .debug_ranges  0x00000998       0x18 ./rzg_gen/MainTask.o
 .debug_ranges  0x000009b0       0x18 ./rzg_gen/blinky_thread.o
 .debug_ranges  0x000009c8       0x10 ./rzg_gen/common_data.o
 .debug_ranges  0x000009d8       0x28 ./rzg_gen/hal_data.o
 .debug_ranges  0x00000a00       0x30 ./rzg_gen/main.o
 .debug_ranges  0x00000a30       0x88 ./rzg/linaro/open-amp/lib/virtio/virtio.o
 .debug_ranges  0x00000ab8      0x360 ./rzg/linaro/open-amp/lib/virtio/virtqueue.o
 .debug_ranges  0x00000e18      0x220 ./rzg/linaro/open-amp/lib/rpmsg/rpmsg.o
 .debug_ranges  0x00001038      0x3f8 ./rzg/linaro/open-amp/lib/rpmsg/rpmsg_virtio.o
 .debug_ranges  0x00001430      0x748 ./rzg/linaro/open-amp/lib/remoteproc/remoteproc.o
 .debug_ranges  0x00001b78      0x3a0 ./rzg/linaro/open-amp/lib/remoteproc/remoteproc_virtio.o
 .debug_ranges  0x00001f18       0x58 ./rzg/linaro/open-amp/lib/remoteproc/rsc_table_parser.o
 .debug_ranges  0x00001f70       0x38 ./rzg/linaro/libmetal/lib/system/freertos/rzg2/sys.o
 .debug_ranges  0x00001fa8       0x10 ./rzg/linaro/libmetal/lib/system/freertos/device.o
 .debug_ranges  0x00001fb8       0x18 ./rzg/linaro/libmetal/lib/system/freertos/init.o
 .debug_ranges  0x00001fd0       0x28 ./rzg/linaro/libmetal/lib/system/freertos/io.o
 .debug_ranges  0x00001ff8      0x150 ./rzg/linaro/libmetal/lib/system/freertos/irq.o
 .debug_ranges  0x00002148      0x138 ./rzg/linaro/libmetal/lib/device.o
 .debug_ranges  0x00002280       0x50 ./rzg/linaro/libmetal/lib/init.o
 .debug_ranges  0x000022d0       0xc0 ./rzg/linaro/libmetal/lib/io.o
 .debug_ranges  0x00002390       0x30 ./rzg/linaro/libmetal/lib/log.o
 .debug_ranges  0x000023c0       0xd8 ./rzg/fsp/src/rm_freertos_port/port.o
 .debug_ranges  0x00002498       0x60 ./rzg/fsp/src/rm_freertos_port/portasm.o
 .debug_ranges  0x000024f8      0x558 ./rzg/fsp/src/r_scif_uart/r_scif_uart.o
 .debug_ranges  0x00002a50      0x170 ./rzg/fsp/src/r_mhu_ns/r_mhu_ns.o
 .debug_ranges  0x00002bc0      0x530 ./rzg/fsp/src/r_ioport/r_ioport.o
 .debug_ranges  0x000030f0      0x1c0 ./rzg/fsp/src/r_gtm/r_gtm.o
 .debug_ranges  0x000032b0       0x88 ./rzg/fsp/src/bsp/mcu/all/bsp_clocks.o
 .debug_ranges  0x00003338       0x20 ./rzg/fsp/src/bsp/mcu/all/bsp_common.o
 .debug_ranges  0x00003358       0x10 ./rzg/fsp/src/bsp/mcu/all/bsp_irq.o
 .debug_ranges  0x00003368       0x30 ./rzg/fsp/src/bsp/mcu/all/bsp_irqs.o
 .debug_ranges  0x00003398       0x10 ./rzg/fsp/src/bsp/mcu/all/bsp_sbrk.o
 .debug_ranges  0x000033a8       0x20 ./rzg/fsp/src/bsp/mcu/all/bsp_security.o
 .debug_ranges  0x000033c8       0x20 ./rzg/fsp/src/bsp/cmsis/Device/RENESAS/Source/startup.o
 .debug_ranges  0x000033e8       0x28 ./rzg/fsp/src/bsp/cmsis/Device/RENESAS/Source/startups.o
 .debug_ranges  0x00003410       0x18 ./rzg/fsp/src/bsp/cmsis/Device/RENESAS/Source/system.o
 .debug_ranges  0x00003428       0x18 ./rzg/fsp/src/bsp/cmsis/Device/RENESAS/Source/systems.o
 .debug_ranges  0x00003440       0x10 ./rzg/board/rzg2l_smarc/board_init.o
 .debug_ranges  0x00003450       0x40 ./rzg/aws/amazon-freertos/freertos_kernel/portable/MemMang/heap_4.o
 .debug_ranges  0x00003490       0x30 ./rzg/aws/amazon-freertos/freertos_kernel/list.o
 .debug_ranges  0x000034c0      0x3e8 ./rzg/aws/amazon-freertos/freertos_kernel/queue.o
 .debug_ranges  0x000038a8      0x428 ./rzg/aws/amazon-freertos/freertos_kernel/tasks.o
 .debug_ranges  0x00003cd0      0x248 ./rzg/aws/amazon-freertos/freertos_kernel/timers.o
 .debug_ranges  0x00003f18       0x28 /usr/lib/gcc/arm-none-eabi/12.2.1/../../../arm-none-eabi/lib/thumb/v8-m.main/nofp/libc_nano.a(lib_a-nano-vfprintf.o)
 .debug_ranges  0x00003f40       0x98 /usr/lib/gcc/arm-none-eabi/12.2.1/../../../arm-none-eabi/lib/thumb/v8-m.main/nofp/libc_nano.a(lib_a-nano-vfprintf_i.o)
 .debug_ranges  0x00003fd8       0x28 /usr/lib/gcc/arm-none-eabi/12.2.1/../../../arm-none-eabi/lib/thumb/v8-m.main/nofp/libc_nano.a(lib_a-wbuf.o)
 .debug_ranges  0x00004000       0x30 /usr/lib/gcc/arm-none-eabi/12.2.1/../../../arm-none-eabi/lib/thumb/v8-m.main/nofp/libc_nano.a(lib_a-wsetup.o)
 .debug_ranges  0x00004030       0xa0 /usr/lib/gcc/arm-none-eabi/12.2.1/../../../arm-none-eabi/lib/thumb/v8-m.main/nofp/libc_nano.a(lib_a-fflush.o)
 .debug_ranges  0x000040d0      0x1b0 /usr/lib/gcc/arm-none-eabi/12.2.1/../../../arm-none-eabi/lib/thumb/v8-m.main/nofp/libc_nano.a(lib_a-findfp.o)
 .debug_ranges  0x00004280       0x30 /usr/lib/gcc/arm-none-eabi/12.2.1/../../../arm-none-eabi/lib/thumb/v8-m.main/nofp/libc_nano.a(lib_a-fvwrite.o)
 .debug_ranges  0x000042b0       0x80 /usr/lib/gcc/arm-none-eabi/12.2.1/../../../arm-none-eabi/lib/thumb/v8-m.main/nofp/libc_nano.a(lib_a-makebuf.o)
 .debug_ranges  0x00004330       0x18 /usr/lib/gcc/arm-none-eabi/12.2.1/../../../arm-none-eabi/lib/thumb/v8-m.main/nofp/libc_nano.a(lib_a-nano-freer.o)
 .debug_ranges  0x00004348       0x38 /usr/lib/gcc/arm-none-eabi/12.2.1/../../../arm-none-eabi/lib/thumb/v8-m.main/nofp/libc_nano.a(lib_a-nano-mallocr.o)
 .debug_ranges  0x00004380       0xb0 /usr/lib/gcc/arm-none-eabi/12.2.1/../../../arm-none-eabi/lib/thumb/v8-m.main/nofp/libc_nano.a(lib_a-signal.o)

.debug_line     0x00000000    0x1b5f2
 .debug_line    0x00000000      0x2aa ./src/MainTask_entry.o
 .debug_line    0x000002aa      0x344 ./src/blinky_thread_entry.o
 .debug_line    0x000005ee      0x192 ./src/hal_entry.o
 .debug_line    0x00000780      0xdb8 ./src/mbed_printf_implementation.o
 .debug_line    0x00001538       0xc2 ./src/pin_data.o
 .debug_line    0x000015fa      0x795 ./src/platform_info.o
 .debug_line    0x00001d8f      0x396 ./src/rpmsg_demo.o
 .debug_line    0x00002125      0x10a ./src/rsc_table.o
 .debug_line    0x0000222f      0x71c ./src/rzg2_rproc.o
 .debug_line    0x0000294b      0x517 ./src/serial.o
 .debug_line    0x00002e62      0x14c ./src/sys_init.o
 .debug_line    0x00002fae      0x172 ./rzg_gen/MainTask.o
 .debug_line    0x00003120      0x17c ./rzg_gen/blinky_thread.o
 .debug_line    0x0000329c      0x16a ./rzg_gen/common_data.o
 .debug_line    0x00003406      0x2a7 ./rzg_gen/hal_data.o
 .debug_line    0x000036ad      0x284 ./rzg_gen/main.o
 .debug_line    0x00003931       0x79 ./rzg_gen/vector_data.o
 .debug_line    0x000039aa      0x297 ./rzg/linaro/open-amp/lib/virtio/virtio.o
 .debug_line    0x00003c41      0xb2f ./rzg/linaro/open-amp/lib/virtio/virtqueue.o
 .debug_line    0x00004770      0x74c ./rzg/linaro/open-amp/lib/rpmsg/rpmsg.o
 .debug_line    0x00004ebc     0x11b7 ./rzg/linaro/open-amp/lib/rpmsg/rpmsg_virtio.o
 .debug_line    0x00006073     0x2177 ./rzg/linaro/open-amp/lib/remoteproc/remoteproc.o
 .debug_line    0x000081ea      0xb1d ./rzg/linaro/open-amp/lib/remoteproc/remoteproc_virtio.o
 .debug_line    0x00008d07      0x4d1 ./rzg/linaro/open-amp/lib/remoteproc/rsc_table_parser.o
 .debug_line    0x000091d8      0x17d ./rzg/linaro/libmetal/lib/system/freertos/rzg2/sys.o
 .debug_line    0x00009355      0x14f ./rzg/linaro/libmetal/lib/system/freertos/device.o
 .debug_line    0x000094a4      0x1c1 ./rzg/linaro/libmetal/lib/system/freertos/init.o
 .debug_line    0x00009665      0x168 ./rzg/linaro/libmetal/lib/system/freertos/io.o
 .debug_line    0x000097cd      0xacb ./rzg/linaro/libmetal/lib/system/freertos/irq.o
 .debug_line    0x0000a298      0x679 ./rzg/linaro/libmetal/lib/device.o
 .debug_line    0x0000a911      0x1ef ./rzg/linaro/libmetal/lib/init.o
 .debug_line    0x0000ab00      0x4ef ./rzg/linaro/libmetal/lib/io.o
 .debug_line    0x0000afef      0x14c ./rzg/linaro/libmetal/lib/log.o
 .debug_line    0x0000b13b      0x740 ./rzg/fsp/src/rm_freertos_port/port.o
 .debug_line    0x0000b87b      0x1a6 ./rzg/fsp/src/rm_freertos_port/portasm.o
 .debug_line    0x0000ba21     0x16c9 ./rzg/fsp/src/r_scif_uart/r_scif_uart.o
 .debug_line    0x0000d0ea      0x7d0 ./rzg/fsp/src/r_mhu_ns/r_mhu_ns.o
 .debug_line    0x0000d8ba     0x10a5 ./rzg/fsp/src/r_ioport/r_ioport.o
 .debug_line    0x0000e95f      0x882 ./rzg/fsp/src/r_gtm/r_gtm.o
 .debug_line    0x0000f1e1      0x23b ./rzg/fsp/src/bsp/mcu/all/bsp_clocks.o
 .debug_line    0x0000f41c      0x16f ./rzg/fsp/src/bsp/mcu/all/bsp_common.o
 .debug_line    0x0000f58b       0xaf ./rzg/fsp/src/bsp/mcu/all/bsp_io.o
 .debug_line    0x0000f63a       0x93 ./rzg/fsp/src/bsp/mcu/all/bsp_irq.o
 .debug_line    0x0000f6cd      0x220 ./rzg/fsp/src/bsp/mcu/all/bsp_irqs.o
 .debug_line    0x0000f8ed      0x129 ./rzg/fsp/src/bsp/mcu/all/bsp_sbrk.o
 .debug_line    0x0000fa16      0x195 ./rzg/fsp/src/bsp/mcu/all/bsp_security.o
 .debug_line    0x0000fbab      0x145 ./rzg/fsp/src/bsp/cmsis/Device/RENESAS/Source/startup.o
 .debug_line    0x0000fcf0      0x157 ./rzg/fsp/src/bsp/cmsis/Device/RENESAS/Source/startups.o
 .debug_line    0x0000fe47      0x25e ./rzg/fsp/src/bsp/cmsis/Device/RENESAS/Source/system.o
 .debug_line    0x000100a5      0x291 ./rzg/fsp/src/bsp/cmsis/Device/RENESAS/Source/systems.o
 .debug_line    0x00010336       0x5e ./rzg/board/rzg2l_smarc/board_init.o
 .debug_line    0x00010394       0xf7 ./rzg/board/rzg2l_smarc/board_leds.o
 .debug_line    0x0001048b      0x5d9 ./rzg/aws/amazon-freertos/freertos_kernel/portable/MemMang/heap_4.o
 .debug_line    0x00010a64      0x2c9 ./rzg/aws/amazon-freertos/freertos_kernel/list.o
 .debug_line    0x00010d2d     0x1793 ./rzg/aws/amazon-freertos/freertos_kernel/queue.o
 .debug_line    0x000124c0     0x1fb5 ./rzg/aws/amazon-freertos/freertos_kernel/tasks.o
 .debug_line    0x00014475      0xa94 ./rzg/aws/amazon-freertos/freertos_kernel/timers.o
 .debug_line    0x00014f09      0x190 /usr/lib/gcc/arm-none-eabi/12.2.1/../../../arm-none-eabi/lib/thumb/v8-m.main/nofp/libc_nano.a(lib_a-assert.o)
 .debug_line    0x00015099      0x109 /usr/lib/gcc/arm-none-eabi/12.2.1/../../../arm-none-eabi/lib/thumb/v8-m.main/nofp/libc_nano.a(lib_a-errno.o)
 .debug_line    0x000151a2      0x19f /usr/lib/gcc/arm-none-eabi/12.2.1/../../../arm-none-eabi/lib/thumb/v8-m.main/nofp/libc_nano.a(lib_a-fprintf.o)
 .debug_line    0x00015341       0xe4 /usr/lib/gcc/arm-none-eabi/12.2.1/../../../arm-none-eabi/lib/thumb/v8-m.main/nofp/libc_nano.a(lib_a-impure.o)
 .debug_line    0x00015425       0xc1 /usr/lib/gcc/arm-none-eabi/12.2.1/../../../arm-none-eabi/lib/thumb/v8-m.main/nofp/libc_nano.a(lib_a-memcpy.o)
 .debug_line    0x000154e6      0x1c1 /usr/lib/gcc/arm-none-eabi/12.2.1/../../../arm-none-eabi/lib/thumb/v8-m.main/nofp/libc_nano.a(lib_a-memset.o)
 .debug_line    0x000156a7      0x6c6 /usr/lib/gcc/arm-none-eabi/12.2.1/../../../arm-none-eabi/lib/thumb/v8-m.main/nofp/libc_nano.a(lib_a-nano-vfprintf.o)
 .debug_line    0x00015d6d      0x76c /usr/lib/gcc/arm-none-eabi/12.2.1/../../../arm-none-eabi/lib/thumb/v8-m.main/nofp/libc_nano.a(lib_a-nano-vfprintf_i.o)
 .debug_line    0x000164d9      0x106 /usr/lib/gcc/arm-none-eabi/12.2.1/../../../arm-none-eabi/lib/thumb/v8-m.main/nofp/libc_nano.a(lib_a-strcmp.o)
 .debug_line    0x000165df      0x1be /usr/lib/gcc/arm-none-eabi/12.2.1/../../../arm-none-eabi/lib/thumb/v8-m.main/nofp/libc_nano.a(lib_a-strncmp.o)
 .debug_line    0x0001679d      0x17c /usr/lib/gcc/arm-none-eabi/12.2.1/../../../arm-none-eabi/lib/thumb/v8-m.main/nofp/libc_nano.a(lib_a-strncpy.o)
 .debug_line    0x00016919      0x282 /usr/lib/gcc/arm-none-eabi/12.2.1/../../../arm-none-eabi/lib/thumb/v8-m.main/nofp/libc_nano.a(lib_a-wbuf.o)
 .debug_line    0x00016b9b      0x342 /usr/lib/gcc/arm-none-eabi/12.2.1/../../../arm-none-eabi/lib/thumb/v8-m.main/nofp/libc_nano.a(lib_a-wsetup.o)
 .debug_line    0x00016edd      0x109 /usr/lib/gcc/arm-none-eabi/12.2.1/../../../arm-none-eabi/lib/thumb/v8-m.main/nofp/libc_nano.a(lib_a-abort.o)
 .debug_line    0x00016fe6      0x49e /usr/lib/gcc/arm-none-eabi/12.2.1/../../../arm-none-eabi/lib/thumb/v8-m.main/nofp/libc_nano.a(lib_a-fflush.o)
 .debug_line    0x00017484      0x5d3 /usr/lib/gcc/arm-none-eabi/12.2.1/../../../arm-none-eabi/lib/thumb/v8-m.main/nofp/libc_nano.a(lib_a-findfp.o)
 .debug_line    0x00017a57      0x5e0 /usr/lib/gcc/arm-none-eabi/12.2.1/../../../arm-none-eabi/lib/thumb/v8-m.main/nofp/libc_nano.a(lib_a-fvwrite.o)
 .debug_line    0x00018037      0x296 /usr/lib/gcc/arm-none-eabi/12.2.1/../../../arm-none-eabi/lib/thumb/v8-m.main/nofp/libc_nano.a(lib_a-fwalk.o)
 .debug_line    0x000182cd      0x3bd /usr/lib/gcc/arm-none-eabi/12.2.1/../../../arm-none-eabi/lib/thumb/v8-m.main/nofp/libc_nano.a(lib_a-makebuf.o)
 .debug_line    0x0001868a      0x1a8 /usr/lib/gcc/arm-none-eabi/12.2.1/../../../arm-none-eabi/lib/thumb/v8-m.main/nofp/libc_nano.a(lib_a-memchr-stub.o)
 .debug_line    0x00018832      0x202 /usr/lib/gcc/arm-none-eabi/12.2.1/../../../arm-none-eabi/lib/thumb/v8-m.main/nofp/libc_nano.a(lib_a-memmove.o)
 .debug_line    0x00018a34      0x2c1 /usr/lib/gcc/arm-none-eabi/12.2.1/../../../arm-none-eabi/lib/thumb/v8-m.main/nofp/libc_nano.a(lib_a-nano-freer.o)
 .debug_line    0x00018cf5      0x2c0 /usr/lib/gcc/arm-none-eabi/12.2.1/../../../arm-none-eabi/lib/thumb/v8-m.main/nofp/libc_nano.a(lib_a-nano-mallocr.o)
 .debug_line    0x00018fb5      0x1c7 /usr/lib/gcc/arm-none-eabi/12.2.1/../../../arm-none-eabi/lib/thumb/v8-m.main/nofp/libc_nano.a(lib_a-nano-reallocr.o)
 .debug_line    0x0001917c      0x183 /usr/lib/gcc/arm-none-eabi/12.2.1/../../../arm-none-eabi/lib/thumb/v8-m.main/nofp/libc_nano.a(lib_a-sbrkr.o)
 .debug_line    0x000192ff      0x652 /usr/lib/gcc/arm-none-eabi/12.2.1/../../../arm-none-eabi/lib/thumb/v8-m.main/nofp/libc_nano.a(lib_a-signal.o)
 .debug_line    0x00019951      0x1a4 /usr/lib/gcc/arm-none-eabi/12.2.1/../../../arm-none-eabi/lib/thumb/v8-m.main/nofp/libc_nano.a(lib_a-signalr.o)
 .debug_line    0x00019af5      0x241 /usr/lib/gcc/arm-none-eabi/12.2.1/../../../arm-none-eabi/lib/thumb/v8-m.main/nofp/libc_nano.a(lib_a-stdio.o)
 .debug_line    0x00019d36      0x18d /usr/lib/gcc/arm-none-eabi/12.2.1/../../../arm-none-eabi/lib/thumb/v8-m.main/nofp/libc_nano.a(lib_a-writer.o)
 .debug_line    0x00019ec3      0x183 /usr/lib/gcc/arm-none-eabi/12.2.1/../../../arm-none-eabi/lib/thumb/v8-m.main/nofp/libc_nano.a(lib_a-closer.o)
 .debug_line    0x0001a046      0x1fd /usr/lib/gcc/arm-none-eabi/12.2.1/../../../arm-none-eabi/lib/thumb/v8-m.main/nofp/libc_nano.a(lib_a-fstatr.o)
 .debug_line    0x0001a243      0x184 /usr/lib/gcc/arm-none-eabi/12.2.1/../../../arm-none-eabi/lib/thumb/v8-m.main/nofp/libc_nano.a(lib_a-isattyr.o)
 .debug_line    0x0001a3c7      0x18d /usr/lib/gcc/arm-none-eabi/12.2.1/../../../arm-none-eabi/lib/thumb/v8-m.main/nofp/libc_nano.a(lib_a-lseekr.o)
 .debug_line    0x0001a554      0x13e /usr/lib/gcc/arm-none-eabi/12.2.1/../../../arm-none-eabi/lib/thumb/v8-m.main/nofp/libc_nano.a(lib_a-mlock.o)
 .debug_line    0x0001a692      0x160 /usr/lib/gcc/arm-none-eabi/12.2.1/../../../arm-none-eabi/lib/thumb/v8-m.main/nofp/libc_nano.a(lib_a-nano-msizer.o)
 .debug_line    0x0001a7f2      0x18c /usr/lib/gcc/arm-none-eabi/12.2.1/../../../arm-none-eabi/lib/thumb/v8-m.main/nofp/libc_nano.a(lib_a-readr.o)
 .debug_line    0x0001a97e      0x2c7 /usr/lib/gcc/arm-none-eabi/12.2.1/../../../arm-none-eabi/lib/thumb/v8-m.main/nofp/libc_nano.a(lib_a-reent.o)
 .debug_line    0x0001ac45       0x75 /usr/lib/gcc/arm-none-eabi/12.2.1/../../../arm-none-eabi/lib/thumb/v8-m.main/nofp/libnosys.a(close.o)
 .debug_line    0x0001acba      0x13f /usr/lib/gcc/arm-none-eabi/12.2.1/../../../arm-none-eabi/lib/thumb/v8-m.main/nofp/libnosys.a(fstat.o)
 .debug_line    0x0001adf9       0x76 /usr/lib/gcc/arm-none-eabi/12.2.1/../../../arm-none-eabi/lib/thumb/v8-m.main/nofp/libnosys.a(getpid.o)
 .debug_line    0x0001ae6f       0x76 /usr/lib/gcc/arm-none-eabi/12.2.1/../../../arm-none-eabi/lib/thumb/v8-m.main/nofp/libnosys.a(isatty.o)
 .debug_line    0x0001aee5       0x74 /usr/lib/gcc/arm-none-eabi/12.2.1/../../../arm-none-eabi/lib/thumb/v8-m.main/nofp/libnosys.a(kill.o)
 .debug_line    0x0001af59       0x75 /usr/lib/gcc/arm-none-eabi/12.2.1/../../../arm-none-eabi/lib/thumb/v8-m.main/nofp/libnosys.a(lseek.o)
 .debug_line    0x0001afce       0x74 /usr/lib/gcc/arm-none-eabi/12.2.1/../../../arm-none-eabi/lib/thumb/v8-m.main/nofp/libnosys.a(read.o)
 .debug_line    0x0001b042       0x75 /usr/lib/gcc/arm-none-eabi/12.2.1/../../../arm-none-eabi/lib/thumb/v8-m.main/nofp/libnosys.a(write.o)
 .debug_line    0x0001b0b7       0x75 /usr/lib/gcc/arm-none-eabi/12.2.1/../../../arm-none-eabi/lib/thumb/v8-m.main/nofp/libnosys.a(_exit.o)
 .debug_line    0x0001b12c      0x16f /usr/lib/gcc/arm-none-eabi/12.2.1/thumb/v8-m.main/nofp/libgcc.a(_arm_addsubdf3.o)
 .debug_line    0x0001b29b       0xa6 /usr/lib/gcc/arm-none-eabi/12.2.1/thumb/v8-m.main/nofp/libgcc.a(_arm_cmpdf2.o)
 .debug_line    0x0001b341       0xb1 /usr/lib/gcc/arm-none-eabi/12.2.1/thumb/v8-m.main/nofp/libgcc.a(_fixdfdi.o)
 .debug_line    0x0001b3f2       0xad /usr/lib/gcc/arm-none-eabi/12.2.1/thumb/v8-m.main/nofp/libgcc.a(_fixunsdfdi.o)
 .debug_line    0x0001b49f       0xf5 /usr/lib/gcc/arm-none-eabi/12.2.1/thumb/v8-m.main/nofp/libgcc.a(_arm_muldf3.o)
 .debug_line    0x0001b594       0x5e /usr/lib/gcc/arm-none-eabi/12.2.1/thumb/v8-m.main/nofp/libgcc.a(_arm_fixunsdfsi.o)

.debug_str      0x00000000    0x1ca83
 .debug_str     0x00000000      0x694 ./src/MainTask_entry.o
                                0x896 (size before relaxing)
 .debug_str     0x00000694     0x98b1 ./src/blinky_thread_entry.o
                               0x9ad9 (size before relaxing)
 .debug_str     0x00009f45     0x1620 ./src/hal_entry.o
                               0x259f (size before relaxing)
 .debug_str     0x0000b565      0x343 ./src/mbed_printf_implementation.o
                                0x59d (size before relaxing)
 .debug_str     0x0000b8a8      0x4a8 ./src/pin_data.o
                               0x1477 (size before relaxing)
 .debug_str     0x0000bd50      0x488 ./src/platform_info.o
                                0xc80 (size before relaxing)
 .debug_str     0x0000c1d8       0xcd ./src/rpmsg_demo.o
                                0x3f5 (size before relaxing)
 .debug_str     0x0000c2a5      0x15e ./src/rsc_table.o
                                0x3bb (size before relaxing)
 .debug_str     0x0000c403     0x221b ./src/rzg2_rproc.o
                               0x3ce5 (size before relaxing)
 .debug_str     0x0000e61e      0x96a ./src/serial.o
                               0x4167 (size before relaxing)
 .debug_str     0x0000ef88       0xaa ./src/sys_init.o
                                0x55b (size before relaxing)
 .debug_str     0x0000f032       0xef ./rzg_gen/MainTask.o
                                0x33d (size before relaxing)
 .debug_str     0x0000f121       0x83 ./rzg_gen/blinky_thread.o
                                0x360 (size before relaxing)
 .debug_str     0x0000f1a4      0x7a6 ./rzg_gen/common_data.o
                               0x2d83 (size before relaxing)
 .debug_str     0x0000f94a      0xfd9 ./rzg_gen/hal_data.o
                               0x5d1c (size before relaxing)
 .debug_str     0x00010923      0x2ca ./rzg_gen/main.o
                                0x66c (size before relaxing)
 .debug_str     0x00010bed       0xba ./rzg_gen/vector_data.o
                                0x286 (size before relaxing)
 .debug_str     0x00010ca7      0x13d ./rzg/linaro/open-amp/lib/virtio/virtio.o
                                0x707 (size before relaxing)
 .debug_str     0x00010de4      0x303 ./rzg/linaro/open-amp/lib/virtio/virtqueue.o
                                0x930 (size before relaxing)
 .debug_str     0x000110e7      0x1f0 ./rzg/linaro/open-amp/lib/rpmsg/rpmsg.o
                                0x5c1 (size before relaxing)
 .debug_str     0x000112d7      0x354 ./rzg/linaro/open-amp/lib/rpmsg/rpmsg_virtio.o
                                0xd17 (size before relaxing)
 .debug_str     0x0001162b      0x46f ./rzg/linaro/open-amp/lib/remoteproc/remoteproc.o
                               0x10a4 (size before relaxing)
 .debug_str     0x00011a9a      0x228 ./rzg/linaro/open-amp/lib/remoteproc/remoteproc_virtio.o
                                0xa03 (size before relaxing)
 .debug_str     0x00011cc2      0x102 ./rzg/linaro/open-amp/lib/remoteproc/rsc_table_parser.o
                                0x6c4 (size before relaxing)
 .debug_str     0x00011dc4       0xd7 ./rzg/linaro/libmetal/lib/system/freertos/rzg2/sys.o
                                0x2fa (size before relaxing)
 .debug_str     0x00011e9b       0x64 ./rzg/linaro/libmetal/lib/system/freertos/device.o
                                0x429 (size before relaxing)
 .debug_str     0x00011eff       0x97 ./rzg/linaro/libmetal/lib/system/freertos/init.o
                                0x59e (size before relaxing)
 .debug_str     0x00011f96       0x36 ./rzg/linaro/libmetal/lib/system/freertos/io.o
                                0x363 (size before relaxing)
 .debug_str     0x00011fcc      0x1f5 ./rzg/linaro/libmetal/lib/system/freertos/irq.o
                               0x2628 (size before relaxing)
 .debug_str     0x000121c1       0xb7 ./rzg/linaro/libmetal/lib/device.o
                                0x768 (size before relaxing)
 .debug_str     0x00012278       0x22 ./rzg/linaro/libmetal/lib/init.o
                                0x3ac (size before relaxing)
 .debug_str     0x0001229a       0x46 ./rzg/linaro/libmetal/lib/io.o
                                0x3e0 (size before relaxing)
 .debug_str     0x000122e0       0x75 ./rzg/linaro/libmetal/lib/log.o
                                0x3a3 (size before relaxing)
 .debug_str     0x00012355     0x1144 ./rzg/fsp/src/rm_freertos_port/port.o
                               0x4e50 (size before relaxing)
 .debug_str     0x00013499       0xcb ./rzg/fsp/src/rm_freertos_port/portasm.o
                                0x2fd (size before relaxing)
 .debug_str     0x00013564     0x414e ./rzg/fsp/src/r_scif_uart/r_scif_uart.o
                               0x97fa (size before relaxing)
 .debug_str     0x000176b2      0x125 ./rzg/fsp/src/r_mhu_ns/r_mhu_ns.o
                               0x783a (size before relaxing)
 .debug_str     0x000177d7     0x128d ./rzg/fsp/src/r_ioport/r_ioport.o
                               0xca6a (size before relaxing)
 .debug_str     0x00018a64      0x16a ./rzg/fsp/src/r_gtm/r_gtm.o
                               0x7e89 (size before relaxing)
 .debug_str     0x00018bce       0x82 ./rzg/fsp/src/bsp/mcu/all/bsp_clocks.o
                                0x468 (size before relaxing)
 .debug_str     0x00018c50       0xcf ./rzg/fsp/src/bsp/mcu/all/bsp_common.o
                               0x1813 (size before relaxing)
 .debug_str     0x00018d1f       0x24 ./rzg/fsp/src/bsp/mcu/all/bsp_io.o
                                0x211 (size before relaxing)
 .debug_str     0x00018d43       0x31 ./rzg/fsp/src/bsp/mcu/all/bsp_irq.o
                                0x214 (size before relaxing)
 .debug_str     0x00018d74       0x34 ./rzg/fsp/src/bsp/mcu/all/bsp_irqs.o
                               0x4635 (size before relaxing)
 .debug_str     0x00018da8       0x97 ./rzg/fsp/src/bsp/mcu/all/bsp_sbrk.o
                                0x272 (size before relaxing)
 .debug_str     0x00018e3f      0x12a ./rzg/fsp/src/bsp/mcu/all/bsp_security.o
                                0x438 (size before relaxing)
 .debug_str     0x00018f69       0x85 ./rzg/fsp/src/bsp/cmsis/Device/RENESAS/Source/startup.o
                                0x276 (size before relaxing)
 .debug_str     0x00018fee       0xab ./rzg/fsp/src/bsp/cmsis/Device/RENESAS/Source/startups.o
                                0x289 (size before relaxing)
 .debug_str     0x00019099       0xa3 ./rzg/fsp/src/bsp/cmsis/Device/RENESAS/Source/system.o
                                0x39b (size before relaxing)
 .debug_str     0x0001913c       0x79 ./rzg/fsp/src/bsp/cmsis/Device/RENESAS/Source/systems.o
                               0x1286 (size before relaxing)
 .debug_str     0x000191b5       0x26 ./rzg/board/rzg2l_smarc/board_init.o
                                0x202 (size before relaxing)
 .debug_str     0x000191db       0x35 ./rzg/board/rzg2l_smarc/board_leds.o
                                0xfaa (size before relaxing)
 .debug_str     0x00019210      0x3ae ./rzg/aws/amazon-freertos/freertos_kernel/portable/MemMang/heap_4.o
                                0x546 (size before relaxing)
 .debug_str     0x000195be      0x12e ./rzg/aws/amazon-freertos/freertos_kernel/list.o
                                0x33f (size before relaxing)
 .debug_str     0x000196ec      0x58c ./rzg/aws/amazon-freertos/freertos_kernel/queue.o
                                0xad0 (size before relaxing)
 .debug_str     0x00019c78      0x968 ./rzg/aws/amazon-freertos/freertos_kernel/tasks.o
                               0x10a9 (size before relaxing)
 .debug_str     0x0001a5e0      0x4b7 ./rzg/aws/amazon-freertos/freertos_kernel/timers.o
                                0xb66 (size before relaxing)
 .debug_str     0x0001aa97      0x409 /usr/lib/gcc/arm-none-eabi/12.2.1/../../../arm-none-eabi/lib/thumb/v8-m.main/nofp/libc_nano.a(lib_a-assert.o)
                                0x544 (size before relaxing)
 .debug_str     0x0001aea0       0x94 /usr/lib/gcc/arm-none-eabi/12.2.1/../../../arm-none-eabi/lib/thumb/v8-m.main/nofp/libc_nano.a(lib_a-errno.o)
                                0x509 (size before relaxing)
 .debug_str     0x0001af34       0xad /usr/lib/gcc/arm-none-eabi/12.2.1/../../../arm-none-eabi/lib/thumb/v8-m.main/nofp/libc_nano.a(lib_a-fprintf.o)
                                0x54d (size before relaxing)
 .debug_str     0x0001afe1       0xf3 /usr/lib/gcc/arm-none-eabi/12.2.1/../../../arm-none-eabi/lib/thumb/v8-m.main/nofp/libc_nano.a(lib_a-impure.o)
                                0x560 (size before relaxing)
 .debug_str     0x0001b0d4       0xb7 /usr/lib/gcc/arm-none-eabi/12.2.1/../../../arm-none-eabi/lib/thumb/v8-m.main/nofp/libc_nano.a(lib_a-memcpy.o)
 .debug_str     0x0001b18b       0xa4 /usr/lib/gcc/arm-none-eabi/12.2.1/../../../arm-none-eabi/lib/thumb/v8-m.main/nofp/libc_nano.a(lib_a-memset.o)
                                0x1c2 (size before relaxing)
 .debug_str     0x0001b22f      0x2a7 /usr/lib/gcc/arm-none-eabi/12.2.1/../../../arm-none-eabi/lib/thumb/v8-m.main/nofp/libc_nano.a(lib_a-nano-vfprintf.o)
                                0x8bb (size before relaxing)
 .debug_str     0x0001b4d6       0x8d /usr/lib/gcc/arm-none-eabi/12.2.1/../../../arm-none-eabi/lib/thumb/v8-m.main/nofp/libc_nano.a(lib_a-nano-vfprintf_i.o)
                                0x7ee (size before relaxing)
 .debug_str     0x0001b563       0x43 /usr/lib/gcc/arm-none-eabi/12.2.1/../../../arm-none-eabi/lib/thumb/v8-m.main/nofp/libc_nano.a(lib_a-strcmp.o)
                                 0xb7 (size before relaxing)
 .debug_str     0x0001b5a6       0x35 /usr/lib/gcc/arm-none-eabi/12.2.1/../../../arm-none-eabi/lib/thumb/v8-m.main/nofp/libc_nano.a(lib_a-strncmp.o)
                                0x1b0 (size before relaxing)
 .debug_str     0x0001b5db       0x57 /usr/lib/gcc/arm-none-eabi/12.2.1/../../../arm-none-eabi/lib/thumb/v8-m.main/nofp/libc_nano.a(lib_a-strncpy.o)
                                0x1d8 (size before relaxing)
 .debug_str     0x0001b632       0x43 /usr/lib/gcc/arm-none-eabi/12.2.1/../../../arm-none-eabi/lib/thumb/v8-m.main/nofp/libc_nano.a(lib_a-wbuf.o)
                                0x584 (size before relaxing)
 .debug_str     0x0001b675       0x48 /usr/lib/gcc/arm-none-eabi/12.2.1/../../../arm-none-eabi/lib/thumb/v8-m.main/nofp/libc_nano.a(lib_a-wsetup.o)
                                0x57f (size before relaxing)
 .debug_str     0x0001b6bd       0x3f /usr/lib/gcc/arm-none-eabi/12.2.1/../../../arm-none-eabi/lib/thumb/v8-m.main/nofp/libc_nano.a(lib_a-abort.o)
                                0x1b1 (size before relaxing)
 .debug_str     0x0001b6fc       0x63 /usr/lib/gcc/arm-none-eabi/12.2.1/../../../arm-none-eabi/lib/thumb/v8-m.main/nofp/libc_nano.a(lib_a-fflush.o)
                                0x5c0 (size before relaxing)
 .debug_str     0x0001b75f      0x1ce /usr/lib/gcc/arm-none-eabi/12.2.1/../../../arm-none-eabi/lib/thumb/v8-m.main/nofp/libc_nano.a(lib_a-findfp.o)
                                0x739 (size before relaxing)
 .debug_str     0x0001b92d       0x65 /usr/lib/gcc/arm-none-eabi/12.2.1/../../../arm-none-eabi/lib/thumb/v8-m.main/nofp/libc_nano.a(lib_a-fvwrite.o)
                                0x5b3 (size before relaxing)
 .debug_str     0x0001b992       0x41 /usr/lib/gcc/arm-none-eabi/12.2.1/../../../arm-none-eabi/lib/thumb/v8-m.main/nofp/libc_nano.a(lib_a-fwalk.o)
                                0x526 (size before relaxing)
 .debug_str     0x0001b9d3      0x161 /usr/lib/gcc/arm-none-eabi/12.2.1/../../../arm-none-eabi/lib/thumb/v8-m.main/nofp/libc_nano.a(lib_a-makebuf.o)
                                0x6a2 (size before relaxing)
 .debug_str     0x0001bb34       0x4f /usr/lib/gcc/arm-none-eabi/12.2.1/../../../arm-none-eabi/lib/thumb/v8-m.main/nofp/libc_nano.a(lib_a-memchr-stub.o)
                                0x1da (size before relaxing)
 .debug_str     0x0001bb83       0x3e /usr/lib/gcc/arm-none-eabi/12.2.1/../../../arm-none-eabi/lib/thumb/v8-m.main/nofp/libc_nano.a(lib_a-memmove.o)
                                0x1e1 (size before relaxing)
 .debug_str     0x0001bbc1       0xaa /usr/lib/gcc/arm-none-eabi/12.2.1/../../../arm-none-eabi/lib/thumb/v8-m.main/nofp/libc_nano.a(lib_a-nano-freer.o)
                                0x597 (size before relaxing)
 .debug_str     0x0001bc6b       0x46 /usr/lib/gcc/arm-none-eabi/12.2.1/../../../arm-none-eabi/lib/thumb/v8-m.main/nofp/libc_nano.a(lib_a-nano-mallocr.o)
                                0x5c2 (size before relaxing)
 .debug_str     0x0001bcb1       0x23 /usr/lib/gcc/arm-none-eabi/12.2.1/../../../arm-none-eabi/lib/thumb/v8-m.main/nofp/libc_nano.a(lib_a-nano-reallocr.o)
                                0x581 (size before relaxing)
 .debug_str     0x0001bcd4       0x32 /usr/lib/gcc/arm-none-eabi/12.2.1/../../../arm-none-eabi/lib/thumb/v8-m.main/nofp/libc_nano.a(lib_a-sbrkr.o)
                                0x518 (size before relaxing)
 .debug_str     0x0001bd06       0xfd /usr/lib/gcc/arm-none-eabi/12.2.1/../../../arm-none-eabi/lib/thumb/v8-m.main/nofp/libc_nano.a(lib_a-signal.o)
                                0x590 (size before relaxing)
 .debug_str     0x0001be03       0x42 /usr/lib/gcc/arm-none-eabi/12.2.1/../../../arm-none-eabi/lib/thumb/v8-m.main/nofp/libc_nano.a(lib_a-signalr.o)
                                0x51d (size before relaxing)
 .debug_str     0x0001be45       0x92 /usr/lib/gcc/arm-none-eabi/12.2.1/../../../arm-none-eabi/lib/thumb/v8-m.main/nofp/libc_nano.a(lib_a-stdio.o)
                                0x575 (size before relaxing)
 .debug_str     0x0001bed7       0x33 /usr/lib/gcc/arm-none-eabi/12.2.1/../../../arm-none-eabi/lib/thumb/v8-m.main/nofp/libc_nano.a(lib_a-writer.o)
                                0x515 (size before relaxing)
 .debug_str     0x0001bf0a       0x33 /usr/lib/gcc/arm-none-eabi/12.2.1/../../../arm-none-eabi/lib/thumb/v8-m.main/nofp/libc_nano.a(lib_a-closer.o)
                                0x505 (size before relaxing)
 .debug_str     0x0001bf3d       0x40 /usr/lib/gcc/arm-none-eabi/12.2.1/../../../arm-none-eabi/lib/thumb/v8-m.main/nofp/libc_nano.a(lib_a-fstatr.o)
                                0x657 (size before relaxing)
 .debug_str     0x0001bf7d       0x3c /usr/lib/gcc/arm-none-eabi/12.2.1/../../../arm-none-eabi/lib/thumb/v8-m.main/nofp/libc_nano.a(lib_a-isattyr.o)
                                0x50f (size before relaxing)
 .debug_str     0x0001bfb9       0x3a /usr/lib/gcc/arm-none-eabi/12.2.1/../../../arm-none-eabi/lib/thumb/v8-m.main/nofp/libc_nano.a(lib_a-lseekr.o)
                                0x513 (size before relaxing)
 .debug_str     0x0001bff3       0x4c /usr/lib/gcc/arm-none-eabi/12.2.1/../../../arm-none-eabi/lib/thumb/v8-m.main/nofp/libc_nano.a(lib_a-mlock.o)
                                0x52e (size before relaxing)
 .debug_str     0x0001c03f        0xf /usr/lib/gcc/arm-none-eabi/12.2.1/../../../arm-none-eabi/lib/thumb/v8-m.main/nofp/libc_nano.a(lib_a-nano-msizer.o)
                                0x55f (size before relaxing)
 .debug_str     0x0001c04e       0x32 /usr/lib/gcc/arm-none-eabi/12.2.1/../../../arm-none-eabi/lib/thumb/v8-m.main/nofp/libc_nano.a(lib_a-readr.o)
                                0x513 (size before relaxing)
 .debug_str     0x0001c080       0x5e /usr/lib/gcc/arm-none-eabi/12.2.1/../../../arm-none-eabi/lib/thumb/v8-m.main/nofp/libc_nano.a(lib_a-reent.o)
                                0x540 (size before relaxing)
 .debug_str     0x0001c0de       0xf4 /usr/lib/gcc/arm-none-eabi/12.2.1/../../../arm-none-eabi/lib/thumb/v8-m.main/nofp/libnosys.a(close.o)
                                0x196 (size before relaxing)
 .debug_str     0x0001c1d2       0x2f /usr/lib/gcc/arm-none-eabi/12.2.1/../../../arm-none-eabi/lib/thumb/v8-m.main/nofp/libnosys.a(fstat.o)
                                0x2e2 (size before relaxing)
 .debug_str     0x0001c201       0x30 /usr/lib/gcc/arm-none-eabi/12.2.1/../../../arm-none-eabi/lib/thumb/v8-m.main/nofp/libnosys.a(getpid.o)
                                0x191 (size before relaxing)
 .debug_str     0x0001c231       0x30 /usr/lib/gcc/arm-none-eabi/12.2.1/../../../arm-none-eabi/lib/thumb/v8-m.main/nofp/libnosys.a(isatty.o)
                                0x196 (size before relaxing)
 .debug_str     0x0001c261       0x2e /usr/lib/gcc/arm-none-eabi/12.2.1/../../../arm-none-eabi/lib/thumb/v8-m.main/nofp/libnosys.a(kill.o)
                                0x18d (size before relaxing)
 .debug_str     0x0001c28f       0x2f /usr/lib/gcc/arm-none-eabi/12.2.1/../../../arm-none-eabi/lib/thumb/v8-m.main/nofp/libnosys.a(lseek.o)
                                0x194 (size before relaxing)
 .debug_str     0x0001c2be       0x2e /usr/lib/gcc/arm-none-eabi/12.2.1/../../../arm-none-eabi/lib/thumb/v8-m.main/nofp/libnosys.a(read.o)
                                0x192 (size before relaxing)
 .debug_str     0x0001c2ec       0x2f /usr/lib/gcc/arm-none-eabi/12.2.1/../../../arm-none-eabi/lib/thumb/v8-m.main/nofp/libnosys.a(write.o)
                                0x194 (size before relaxing)
 .debug_str     0x0001c31b       0x2f /usr/lib/gcc/arm-none-eabi/12.2.1/../../../arm-none-eabi/lib/thumb/v8-m.main/nofp/libnosys.a(_exit.o)
                                0x183 (size before relaxing)
 .debug_str     0x0001c34a      0x12f /usr/lib/gcc/arm-none-eabi/12.2.1/thumb/v8-m.main/nofp/libgcc.a(_arm_addsubdf3.o)
                                0x155 (size before relaxing)
 .debug_str     0x0001c479       0x97 /usr/lib/gcc/arm-none-eabi/12.2.1/thumb/v8-m.main/nofp/libgcc.a(_arm_cmpdf2.o)
                                0x15e (size before relaxing)
 .debug_str     0x0001c510      0x53a /usr/lib/gcc/arm-none-eabi/12.2.1/thumb/v8-m.main/nofp/libgcc.a(_fixdfdi.o)
                                0x651 (size before relaxing)
 .debug_str     0x0001ca4a       0x23 /usr/lib/gcc/arm-none-eabi/12.2.1/thumb/v8-m.main/nofp/libgcc.a(_fixunsdfdi.o)
                                0x660 (size before relaxing)
 .debug_str     0x0001ca6d        0x9 /usr/lib/gcc/arm-none-eabi/12.2.1/thumb/v8-m.main/nofp/libgcc.a(_arm_muldf3.o)
                                 0xbf (size before relaxing)
 .debug_str     0x0001ca76        0xd /usr/lib/gcc/arm-none-eabi/12.2.1/thumb/v8-m.main/nofp/libgcc.a(_arm_fixunsdfsi.o)
                                 0xc4 (size before relaxing)

.comment        0x00000000       0x59
 .comment       0x00000000       0x26 ./src/MainTask_entry.o
                                 0x27 (size before relaxing)
 .comment       0x00000026       0x27 ./src/blinky_thread_entry.o
 .comment       0x00000026       0x27 ./src/hal_entry.o
 .comment       0x00000026       0x27 ./src/mbed_printf_implementation.o
 .comment       0x00000026       0x27 ./src/pin_data.o
 .comment       0x00000026       0x27 ./src/platform_info.o
 .comment       0x00000026       0x27 ./src/rpmsg_demo.o
 .comment       0x00000026       0x27 ./src/rsc_table.o
 .comment       0x00000026       0x27 ./src/rzg2_rproc.o
 .comment       0x00000026       0x27 ./src/serial.o
 .comment       0x00000026       0x27 ./src/sys_init.o
 .comment       0x00000026       0x27 ./rzg_gen/MainTask.o
 .comment       0x00000026       0x27 ./rzg_gen/blinky_thread.o
 .comment       0x00000026       0x27 ./rzg_gen/common_data.o
 .comment       0x00000026       0x27 ./rzg_gen/hal_data.o
 .comment       0x00000026       0x27 ./rzg_gen/main.o
 .comment       0x00000026       0x27 ./rzg_gen/vector_data.o
 .comment       0x00000026       0x27 ./rzg/linaro/open-amp/lib/virtio/virtio.o
 .comment       0x00000026       0x27 ./rzg/linaro/open-amp/lib/virtio/virtqueue.o
 .comment       0x00000026       0x27 ./rzg/linaro/open-amp/lib/rpmsg/rpmsg.o
 .comment       0x00000026       0x27 ./rzg/linaro/open-amp/lib/rpmsg/rpmsg_virtio.o
 .comment       0x00000026       0x27 ./rzg/linaro/open-amp/lib/remoteproc/remoteproc.o
 .comment       0x00000026       0x27 ./rzg/linaro/open-amp/lib/remoteproc/remoteproc_virtio.o
 .comment       0x00000026       0x27 ./rzg/linaro/open-amp/lib/remoteproc/rsc_table_parser.o
 .comment       0x00000026       0x27 ./rzg/linaro/libmetal/lib/system/freertos/rzg2/sys.o
 .comment       0x00000026       0x27 ./rzg/linaro/libmetal/lib/system/freertos/device.o
 .comment       0x00000026       0x27 ./rzg/linaro/libmetal/lib/system/freertos/init.o
 .comment       0x00000026       0x27 ./rzg/linaro/libmetal/lib/system/freertos/io.o
 .comment       0x00000026       0x27 ./rzg/linaro/libmetal/lib/system/freertos/irq.o
 .comment       0x00000026       0x27 ./rzg/linaro/libmetal/lib/device.o
 .comment       0x00000026       0x27 ./rzg/linaro/libmetal/lib/init.o
 .comment       0x00000026       0x27 ./rzg/linaro/libmetal/lib/io.o
 .comment       0x00000026       0x27 ./rzg/linaro/libmetal/lib/log.o
 .comment       0x00000026       0x27 ./rzg/fsp/src/rm_freertos_port/port.o
 .comment       0x00000026       0x27 ./rzg/fsp/src/rm_freertos_port/portasm.o
 .comment       0x00000026       0x27 ./rzg/fsp/src/r_scif_uart/r_scif_uart.o
 .comment       0x00000026       0x27 ./rzg/fsp/src/r_mhu_ns/r_mhu_ns.o
 .comment       0x00000026       0x27 ./rzg/fsp/src/r_ioport/r_ioport.o
 .comment       0x00000026       0x27 ./rzg/fsp/src/r_gtm/r_gtm.o
 .comment       0x00000026       0x27 ./rzg/fsp/src/bsp/mcu/all/bsp_clocks.o
 .comment       0x00000026       0x27 ./rzg/fsp/src/bsp/mcu/all/bsp_common.o
 .comment       0x00000026       0x27 ./rzg/fsp/src/bsp/mcu/all/bsp_io.o
 .comment       0x00000026       0x27 ./rzg/fsp/src/bsp/mcu/all/bsp_irq.o
 .comment       0x00000026       0x27 ./rzg/fsp/src/bsp/mcu/all/bsp_irqs.o
 .comment       0x00000026       0x27 ./rzg/fsp/src/bsp/mcu/all/bsp_sbrk.o
 .comment       0x00000026       0x27 ./rzg/fsp/src/bsp/mcu/all/bsp_security.o
 .comment       0x00000026       0x27 ./rzg/fsp/src/bsp/cmsis/Device/RENESAS/Source/startup.o
 .comment       0x00000026       0x27 ./rzg/fsp/src/bsp/cmsis/Device/RENESAS/Source/startups.o
 .comment       0x00000026       0x27 ./rzg/fsp/src/bsp/cmsis/Device/RENESAS/Source/system.o
 .comment       0x00000026       0x27 ./rzg/fsp/src/bsp/cmsis/Device/RENESAS/Source/systems.o
 .comment       0x00000026       0x27 ./rzg/board/rzg2l_smarc/board_init.o
 .comment       0x00000026       0x27 ./rzg/board/rzg2l_smarc/board_leds.o
 .comment       0x00000026       0x27 ./rzg/aws/amazon-freertos/freertos_kernel/portable/MemMang/heap_4.o
 .comment       0x00000026       0x27 ./rzg/aws/amazon-freertos/freertos_kernel/list.o
 .comment       0x00000026       0x27 ./rzg/aws/amazon-freertos/freertos_kernel/queue.o
 .comment       0x00000026       0x27 ./rzg/aws/amazon-freertos/freertos_kernel/tasks.o
 .comment       0x00000026       0x27 ./rzg/aws/amazon-freertos/freertos_kernel/timers.o
 .comment       0x00000026       0x33 /usr/lib/gcc/arm-none-eabi/12.2.1/../../../arm-none-eabi/lib/thumb/v8-m.main/nofp/libc_nano.a(lib_a-assert.o)
                                 0x34 (size before relaxing)
 .comment       0x00000059       0x34 /usr/lib/gcc/arm-none-eabi/12.2.1/../../../arm-none-eabi/lib/thumb/v8-m.main/nofp/libc_nano.a(lib_a-errno.o)
 .comment       0x00000059       0x34 /usr/lib/gcc/arm-none-eabi/12.2.1/../../../arm-none-eabi/lib/thumb/v8-m.main/nofp/libc_nano.a(lib_a-fprintf.o)
 .comment       0x00000059       0x34 /usr/lib/gcc/arm-none-eabi/12.2.1/../../../arm-none-eabi/lib/thumb/v8-m.main/nofp/libc_nano.a(lib_a-impure.o)
 .comment       0x00000059       0x34 /usr/lib/gcc/arm-none-eabi/12.2.1/../../../arm-none-eabi/lib/thumb/v8-m.main/nofp/libc_nano.a(lib_a-memset.o)
 .comment       0x00000059       0x34 /usr/lib/gcc/arm-none-eabi/12.2.1/../../../arm-none-eabi/lib/thumb/v8-m.main/nofp/libc_nano.a(lib_a-nano-vfprintf.o)
 .comment       0x00000059       0x34 /usr/lib/gcc/arm-none-eabi/12.2.1/../../../arm-none-eabi/lib/thumb/v8-m.main/nofp/libc_nano.a(lib_a-nano-vfprintf_i.o)
 .comment       0x00000059       0x34 /usr/lib/gcc/arm-none-eabi/12.2.1/../../../arm-none-eabi/lib/thumb/v8-m.main/nofp/libc_nano.a(lib_a-strncmp.o)
 .comment       0x00000059       0x34 /usr/lib/gcc/arm-none-eabi/12.2.1/../../../arm-none-eabi/lib/thumb/v8-m.main/nofp/libc_nano.a(lib_a-strncpy.o)
 .comment       0x00000059       0x34 /usr/lib/gcc/arm-none-eabi/12.2.1/../../../arm-none-eabi/lib/thumb/v8-m.main/nofp/libc_nano.a(lib_a-wbuf.o)
 .comment       0x00000059       0x34 /usr/lib/gcc/arm-none-eabi/12.2.1/../../../arm-none-eabi/lib/thumb/v8-m.main/nofp/libc_nano.a(lib_a-wsetup.o)
 .comment       0x00000059       0x34 /usr/lib/gcc/arm-none-eabi/12.2.1/../../../arm-none-eabi/lib/thumb/v8-m.main/nofp/libc_nano.a(lib_a-abort.o)
 .comment       0x00000059       0x34 /usr/lib/gcc/arm-none-eabi/12.2.1/../../../arm-none-eabi/lib/thumb/v8-m.main/nofp/libc_nano.a(lib_a-fflush.o)
 .comment       0x00000059       0x34 /usr/lib/gcc/arm-none-eabi/12.2.1/../../../arm-none-eabi/lib/thumb/v8-m.main/nofp/libc_nano.a(lib_a-findfp.o)
 .comment       0x00000059       0x34 /usr/lib/gcc/arm-none-eabi/12.2.1/../../../arm-none-eabi/lib/thumb/v8-m.main/nofp/libc_nano.a(lib_a-fvwrite.o)
 .comment       0x00000059       0x34 /usr/lib/gcc/arm-none-eabi/12.2.1/../../../arm-none-eabi/lib/thumb/v8-m.main/nofp/libc_nano.a(lib_a-fwalk.o)
 .comment       0x00000059       0x34 /usr/lib/gcc/arm-none-eabi/12.2.1/../../../arm-none-eabi/lib/thumb/v8-m.main/nofp/libc_nano.a(lib_a-makebuf.o)
 .comment       0x00000059       0x34 /usr/lib/gcc/arm-none-eabi/12.2.1/../../../arm-none-eabi/lib/thumb/v8-m.main/nofp/libc_nano.a(lib_a-memchr-stub.o)
 .comment       0x00000059       0x34 /usr/lib/gcc/arm-none-eabi/12.2.1/../../../arm-none-eabi/lib/thumb/v8-m.main/nofp/libc_nano.a(lib_a-memmove.o)
 .comment       0x00000059       0x34 /usr/lib/gcc/arm-none-eabi/12.2.1/../../../arm-none-eabi/lib/thumb/v8-m.main/nofp/libc_nano.a(lib_a-nano-freer.o)
 .comment       0x00000059       0x34 /usr/lib/gcc/arm-none-eabi/12.2.1/../../../arm-none-eabi/lib/thumb/v8-m.main/nofp/libc_nano.a(lib_a-nano-mallocr.o)
 .comment       0x00000059       0x34 /usr/lib/gcc/arm-none-eabi/12.2.1/../../../arm-none-eabi/lib/thumb/v8-m.main/nofp/libc_nano.a(lib_a-nano-reallocr.o)
 .comment       0x00000059       0x34 /usr/lib/gcc/arm-none-eabi/12.2.1/../../../arm-none-eabi/lib/thumb/v8-m.main/nofp/libc_nano.a(lib_a-sbrkr.o)
 .comment       0x00000059       0x34 /usr/lib/gcc/arm-none-eabi/12.2.1/../../../arm-none-eabi/lib/thumb/v8-m.main/nofp/libc_nano.a(lib_a-signal.o)
 .comment       0x00000059       0x34 /usr/lib/gcc/arm-none-eabi/12.2.1/../../../arm-none-eabi/lib/thumb/v8-m.main/nofp/libc_nano.a(lib_a-signalr.o)
 .comment       0x00000059       0x34 /usr/lib/gcc/arm-none-eabi/12.2.1/../../../arm-none-eabi/lib/thumb/v8-m.main/nofp/libc_nano.a(lib_a-stdio.o)
 .comment       0x00000059       0x34 /usr/lib/gcc/arm-none-eabi/12.2.1/../../../arm-none-eabi/lib/thumb/v8-m.main/nofp/libc_nano.a(lib_a-writer.o)
 .comment       0x00000059       0x34 /usr/lib/gcc/arm-none-eabi/12.2.1/../../../arm-none-eabi/lib/thumb/v8-m.main/nofp/libc_nano.a(lib_a-closer.o)
 .comment       0x00000059       0x34 /usr/lib/gcc/arm-none-eabi/12.2.1/../../../arm-none-eabi/lib/thumb/v8-m.main/nofp/libc_nano.a(lib_a-fstatr.o)
 .comment       0x00000059       0x34 /usr/lib/gcc/arm-none-eabi/12.2.1/../../../arm-none-eabi/lib/thumb/v8-m.main/nofp/libc_nano.a(lib_a-isattyr.o)
 .comment       0x00000059       0x34 /usr/lib/gcc/arm-none-eabi/12.2.1/../../../arm-none-eabi/lib/thumb/v8-m.main/nofp/libc_nano.a(lib_a-lseekr.o)
 .comment       0x00000059       0x34 /usr/lib/gcc/arm-none-eabi/12.2.1/../../../arm-none-eabi/lib/thumb/v8-m.main/nofp/libc_nano.a(lib_a-mlock.o)
 .comment       0x00000059       0x34 /usr/lib/gcc/arm-none-eabi/12.2.1/../../../arm-none-eabi/lib/thumb/v8-m.main/nofp/libc_nano.a(lib_a-nano-msizer.o)
 .comment       0x00000059       0x34 /usr/lib/gcc/arm-none-eabi/12.2.1/../../../arm-none-eabi/lib/thumb/v8-m.main/nofp/libc_nano.a(lib_a-readr.o)
 .comment       0x00000059       0x34 /usr/lib/gcc/arm-none-eabi/12.2.1/../../../arm-none-eabi/lib/thumb/v8-m.main/nofp/libc_nano.a(lib_a-reent.o)
 .comment       0x00000059       0x34 /usr/lib/gcc/arm-none-eabi/12.2.1/../../../arm-none-eabi/lib/thumb/v8-m.main/nofp/libnosys.a(close.o)
 .comment       0x00000059       0x34 /usr/lib/gcc/arm-none-eabi/12.2.1/../../../arm-none-eabi/lib/thumb/v8-m.main/nofp/libnosys.a(fstat.o)
 .comment       0x00000059       0x34 /usr/lib/gcc/arm-none-eabi/12.2.1/../../../arm-none-eabi/lib/thumb/v8-m.main/nofp/libnosys.a(getpid.o)
 .comment       0x00000059       0x34 /usr/lib/gcc/arm-none-eabi/12.2.1/../../../arm-none-eabi/lib/thumb/v8-m.main/nofp/libnosys.a(isatty.o)
 .comment       0x00000059       0x34 /usr/lib/gcc/arm-none-eabi/12.2.1/../../../arm-none-eabi/lib/thumb/v8-m.main/nofp/libnosys.a(kill.o)
 .comment       0x00000059       0x34 /usr/lib/gcc/arm-none-eabi/12.2.1/../../../arm-none-eabi/lib/thumb/v8-m.main/nofp/libnosys.a(lseek.o)
 .comment       0x00000059       0x34 /usr/lib/gcc/arm-none-eabi/12.2.1/../../../arm-none-eabi/lib/thumb/v8-m.main/nofp/libnosys.a(read.o)
 .comment       0x00000059       0x34 /usr/lib/gcc/arm-none-eabi/12.2.1/../../../arm-none-eabi/lib/thumb/v8-m.main/nofp/libnosys.a(write.o)
 .comment       0x00000059       0x34 /usr/lib/gcc/arm-none-eabi/12.2.1/../../../arm-none-eabi/lib/thumb/v8-m.main/nofp/libnosys.a(_exit.o)
 .comment       0x00000059       0x27 /usr/lib/gcc/arm-none-eabi/12.2.1/thumb/v8-m.main/nofp/libgcc.a(_fixdfdi.o)
 .comment       0x00000059       0x27 /usr/lib/gcc/arm-none-eabi/12.2.1/thumb/v8-m.main/nofp/libgcc.a(_fixunsdfdi.o)

.ARM.attributes
                0x00000000       0x30
 .ARM.attributes
                0x00000000       0x32 ./src/MainTask_entry.o
 .ARM.attributes
                0x00000032       0x32 ./src/blinky_thread_entry.o
 .ARM.attributes
                0x00000064       0x32 ./src/hal_entry.o
 .ARM.attributes
                0x00000096       0x32 ./src/mbed_printf_implementation.o
 .ARM.attributes
                0x000000c8       0x32 ./src/pin_data.o
 .ARM.attributes
                0x000000fa       0x32 ./src/platform_info.o
 .ARM.attributes
                0x0000012c       0x32 ./src/rpmsg_demo.o
 .ARM.attributes
                0x0000015e       0x32 ./src/rsc_table.o
 .ARM.attributes
                0x00000190       0x32 ./src/rzg2_rproc.o
 .ARM.attributes
                0x000001c2       0x32 ./src/serial.o
 .ARM.attributes
                0x000001f4       0x32 ./src/sys_init.o
 .ARM.attributes
                0x00000226       0x32 ./rzg_gen/MainTask.o
 .ARM.attributes
                0x00000258       0x32 ./rzg_gen/blinky_thread.o
 .ARM.attributes
                0x0000028a       0x32 ./rzg_gen/common_data.o
 .ARM.attributes
                0x000002bc       0x32 ./rzg_gen/hal_data.o
 .ARM.attributes
                0x000002ee       0x32 ./rzg_gen/main.o
 .ARM.attributes
                0x00000320       0x32 ./rzg_gen/vector_data.o
 .ARM.attributes
                0x00000352       0x32 ./rzg/linaro/open-amp/lib/virtio/virtio.o
 .ARM.attributes
                0x00000384       0x32 ./rzg/linaro/open-amp/lib/virtio/virtqueue.o
 .ARM.attributes
                0x000003b6       0x32 ./rzg/linaro/open-amp/lib/rpmsg/rpmsg.o
 .ARM.attributes
                0x000003e8       0x32 ./rzg/linaro/open-amp/lib/rpmsg/rpmsg_virtio.o
 .ARM.attributes
                0x0000041a       0x32 ./rzg/linaro/open-amp/lib/remoteproc/remoteproc.o
 .ARM.attributes
                0x0000044c       0x32 ./rzg/linaro/open-amp/lib/remoteproc/remoteproc_virtio.o
 .ARM.attributes
                0x0000047e       0x32 ./rzg/linaro/open-amp/lib/remoteproc/rsc_table_parser.o
 .ARM.attributes
                0x000004b0       0x32 ./rzg/linaro/libmetal/lib/system/freertos/rzg2/sys.o
 .ARM.attributes
                0x000004e2       0x32 ./rzg/linaro/libmetal/lib/system/freertos/device.o
 .ARM.attributes
                0x00000514       0x32 ./rzg/linaro/libmetal/lib/system/freertos/init.o
 .ARM.attributes
                0x00000546       0x32 ./rzg/linaro/libmetal/lib/system/freertos/io.o
 .ARM.attributes
                0x00000578       0x32 ./rzg/linaro/libmetal/lib/system/freertos/irq.o
 .ARM.attributes
                0x000005aa       0x32 ./rzg/linaro/libmetal/lib/device.o
 .ARM.attributes
                0x000005dc       0x32 ./rzg/linaro/libmetal/lib/init.o
 .ARM.attributes
                0x0000060e       0x32 ./rzg/linaro/libmetal/lib/io.o
 .ARM.attributes
                0x00000640       0x32 ./rzg/linaro/libmetal/lib/log.o
 .ARM.attributes
                0x00000672       0x32 ./rzg/fsp/src/rm_freertos_port/port.o
 .ARM.attributes
                0x000006a4       0x32 ./rzg/fsp/src/rm_freertos_port/portasm.o
 .ARM.attributes
                0x000006d6       0x32 ./rzg/fsp/src/r_scif_uart/r_scif_uart.o
 .ARM.attributes
                0x00000708       0x32 ./rzg/fsp/src/r_mhu_ns/r_mhu_ns.o
 .ARM.attributes
                0x0000073a       0x32 ./rzg/fsp/src/r_ioport/r_ioport.o
 .ARM.attributes
                0x0000076c       0x32 ./rzg/fsp/src/r_gtm/r_gtm.o
 .ARM.attributes
                0x0000079e       0x32 ./rzg/fsp/src/bsp/mcu/all/bsp_clocks.o
 .ARM.attributes
                0x000007d0       0x32 ./rzg/fsp/src/bsp/mcu/all/bsp_common.o
 .ARM.attributes
                0x00000802       0x32 ./rzg/fsp/src/bsp/mcu/all/bsp_io.o
 .ARM.attributes
                0x00000834       0x32 ./rzg/fsp/src/bsp/mcu/all/bsp_irq.o
 .ARM.attributes
                0x00000866       0x32 ./rzg/fsp/src/bsp/mcu/all/bsp_irqs.o
 .ARM.attributes
                0x00000898       0x32 ./rzg/fsp/src/bsp/mcu/all/bsp_sbrk.o
 .ARM.attributes
                0x000008ca       0x32 ./rzg/fsp/src/bsp/mcu/all/bsp_security.o
 .ARM.attributes
                0x000008fc       0x32 ./rzg/fsp/src/bsp/cmsis/Device/RENESAS/Source/startup.o
 .ARM.attributes
                0x0000092e       0x32 ./rzg/fsp/src/bsp/cmsis/Device/RENESAS/Source/startups.o
 .ARM.attributes
                0x00000960       0x32 ./rzg/fsp/src/bsp/cmsis/Device/RENESAS/Source/system.o
 .ARM.attributes
                0x00000992       0x32 ./rzg/fsp/src/bsp/cmsis/Device/RENESAS/Source/systems.o
 .ARM.attributes
                0x000009c4       0x32 ./rzg/board/rzg2l_smarc/board_init.o
 .ARM.attributes
                0x000009f6       0x32 ./rzg/board/rzg2l_smarc/board_leds.o
 .ARM.attributes
                0x00000a28       0x32 ./rzg/aws/amazon-freertos/freertos_kernel/portable/MemMang/heap_4.o
 .ARM.attributes
                0x00000a5a       0x32 ./rzg/aws/amazon-freertos/freertos_kernel/list.o
 .ARM.attributes
                0x00000a8c       0x32 ./rzg/aws/amazon-freertos/freertos_kernel/queue.o
 .ARM.attributes
                0x00000abe       0x32 ./rzg/aws/amazon-freertos/freertos_kernel/tasks.o
 .ARM.attributes
                0x00000af0       0x32 ./rzg/aws/amazon-freertos/freertos_kernel/timers.o
 .ARM.attributes
                0x00000b22       0x32 /usr/lib/gcc/arm-none-eabi/12.2.1/../../../arm-none-eabi/lib/thumb/v8-m.main/nofp/libc_nano.a(lib_a-assert.o)
 .ARM.attributes
                0x00000b54       0x32 /usr/lib/gcc/arm-none-eabi/12.2.1/../../../arm-none-eabi/lib/thumb/v8-m.main/nofp/libc_nano.a(lib_a-errno.o)
 .ARM.attributes
                0x00000b86       0x32 /usr/lib/gcc/arm-none-eabi/12.2.1/../../../arm-none-eabi/lib/thumb/v8-m.main/nofp/libc_nano.a(lib_a-fprintf.o)
 .ARM.attributes
                0x00000bb8       0x32 /usr/lib/gcc/arm-none-eabi/12.2.1/../../../arm-none-eabi/lib/thumb/v8-m.main/nofp/libc_nano.a(lib_a-impure.o)
 .ARM.attributes
                0x00000bea       0x20 /usr/lib/gcc/arm-none-eabi/12.2.1/../../../arm-none-eabi/lib/thumb/v8-m.main/nofp/libc_nano.a(lib_a-memcpy.o)
 .ARM.attributes
                0x00000c0a       0x32 /usr/lib/gcc/arm-none-eabi/12.2.1/../../../arm-none-eabi/lib/thumb/v8-m.main/nofp/libc_nano.a(lib_a-memset.o)
 .ARM.attributes
                0x00000c3c       0x32 /usr/lib/gcc/arm-none-eabi/12.2.1/../../../arm-none-eabi/lib/thumb/v8-m.main/nofp/libc_nano.a(lib_a-nano-vfprintf.o)
 .ARM.attributes
                0x00000c6e       0x32 /usr/lib/gcc/arm-none-eabi/12.2.1/../../../arm-none-eabi/lib/thumb/v8-m.main/nofp/libc_nano.a(lib_a-nano-vfprintf_i.o)
 .ARM.attributes
                0x00000ca0       0x20 /usr/lib/gcc/arm-none-eabi/12.2.1/../../../arm-none-eabi/lib/thumb/v8-m.main/nofp/libc_nano.a(lib_a-strcmp.o)
 .ARM.attributes
                0x00000cc0       0x32 /usr/lib/gcc/arm-none-eabi/12.2.1/../../../arm-none-eabi/lib/thumb/v8-m.main/nofp/libc_nano.a(lib_a-strncmp.o)
 .ARM.attributes
                0x00000cf2       0x32 /usr/lib/gcc/arm-none-eabi/12.2.1/../../../arm-none-eabi/lib/thumb/v8-m.main/nofp/libc_nano.a(lib_a-strncpy.o)
 .ARM.attributes
                0x00000d24       0x32 /usr/lib/gcc/arm-none-eabi/12.2.1/../../../arm-none-eabi/lib/thumb/v8-m.main/nofp/libc_nano.a(lib_a-wbuf.o)
 .ARM.attributes
                0x00000d56       0x32 /usr/lib/gcc/arm-none-eabi/12.2.1/../../../arm-none-eabi/lib/thumb/v8-m.main/nofp/libc_nano.a(lib_a-wsetup.o)
 .ARM.attributes
                0x00000d88       0x32 /usr/lib/gcc/arm-none-eabi/12.2.1/../../../arm-none-eabi/lib/thumb/v8-m.main/nofp/libc_nano.a(lib_a-abort.o)
 .ARM.attributes
                0x00000dba       0x32 /usr/lib/gcc/arm-none-eabi/12.2.1/../../../arm-none-eabi/lib/thumb/v8-m.main/nofp/libc_nano.a(lib_a-fflush.o)
 .ARM.attributes
                0x00000dec       0x32 /usr/lib/gcc/arm-none-eabi/12.2.1/../../../arm-none-eabi/lib/thumb/v8-m.main/nofp/libc_nano.a(lib_a-findfp.o)
 .ARM.attributes
                0x00000e1e       0x32 /usr/lib/gcc/arm-none-eabi/12.2.1/../../../arm-none-eabi/lib/thumb/v8-m.main/nofp/libc_nano.a(lib_a-fvwrite.o)
 .ARM.attributes
                0x00000e50       0x32 /usr/lib/gcc/arm-none-eabi/12.2.1/../../../arm-none-eabi/lib/thumb/v8-m.main/nofp/libc_nano.a(lib_a-fwalk.o)
 .ARM.attributes
                0x00000e82       0x32 /usr/lib/gcc/arm-none-eabi/12.2.1/../../../arm-none-eabi/lib/thumb/v8-m.main/nofp/libc_nano.a(lib_a-makebuf.o)
 .ARM.attributes
                0x00000eb4       0x32 /usr/lib/gcc/arm-none-eabi/12.2.1/../../../arm-none-eabi/lib/thumb/v8-m.main/nofp/libc_nano.a(lib_a-memchr-stub.o)
 .ARM.attributes
                0x00000ee6       0x32 /usr/lib/gcc/arm-none-eabi/12.2.1/../../../arm-none-eabi/lib/thumb/v8-m.main/nofp/libc_nano.a(lib_a-memmove.o)
 .ARM.attributes
                0x00000f18       0x32 /usr/lib/gcc/arm-none-eabi/12.2.1/../../../arm-none-eabi/lib/thumb/v8-m.main/nofp/libc_nano.a(lib_a-nano-freer.o)
 .ARM.attributes
                0x00000f4a       0x32 /usr/lib/gcc/arm-none-eabi/12.2.1/../../../arm-none-eabi/lib/thumb/v8-m.main/nofp/libc_nano.a(lib_a-nano-mallocr.o)
 .ARM.attributes
                0x00000f7c       0x32 /usr/lib/gcc/arm-none-eabi/12.2.1/../../../arm-none-eabi/lib/thumb/v8-m.main/nofp/libc_nano.a(lib_a-nano-reallocr.o)
 .ARM.attributes
                0x00000fae       0x32 /usr/lib/gcc/arm-none-eabi/12.2.1/../../../arm-none-eabi/lib/thumb/v8-m.main/nofp/libc_nano.a(lib_a-sbrkr.o)
 .ARM.attributes
                0x00000fe0       0x32 /usr/lib/gcc/arm-none-eabi/12.2.1/../../../arm-none-eabi/lib/thumb/v8-m.main/nofp/libc_nano.a(lib_a-signal.o)
 .ARM.attributes
                0x00001012       0x32 /usr/lib/gcc/arm-none-eabi/12.2.1/../../../arm-none-eabi/lib/thumb/v8-m.main/nofp/libc_nano.a(lib_a-signalr.o)
 .ARM.attributes
                0x00001044       0x32 /usr/lib/gcc/arm-none-eabi/12.2.1/../../../arm-none-eabi/lib/thumb/v8-m.main/nofp/libc_nano.a(lib_a-stdio.o)
 .ARM.attributes
                0x00001076       0x32 /usr/lib/gcc/arm-none-eabi/12.2.1/../../../arm-none-eabi/lib/thumb/v8-m.main/nofp/libc_nano.a(lib_a-writer.o)
 .ARM.attributes
                0x000010a8       0x32 /usr/lib/gcc/arm-none-eabi/12.2.1/../../../arm-none-eabi/lib/thumb/v8-m.main/nofp/libc_nano.a(lib_a-closer.o)
 .ARM.attributes
                0x000010da       0x32 /usr/lib/gcc/arm-none-eabi/12.2.1/../../../arm-none-eabi/lib/thumb/v8-m.main/nofp/libc_nano.a(lib_a-fstatr.o)
 .ARM.attributes
                0x0000110c       0x32 /usr/lib/gcc/arm-none-eabi/12.2.1/../../../arm-none-eabi/lib/thumb/v8-m.main/nofp/libc_nano.a(lib_a-isattyr.o)
 .ARM.attributes
                0x0000113e       0x32 /usr/lib/gcc/arm-none-eabi/12.2.1/../../../arm-none-eabi/lib/thumb/v8-m.main/nofp/libc_nano.a(lib_a-lseekr.o)
 .ARM.attributes
                0x00001170       0x32 /usr/lib/gcc/arm-none-eabi/12.2.1/../../../arm-none-eabi/lib/thumb/v8-m.main/nofp/libc_nano.a(lib_a-mlock.o)
 .ARM.attributes
                0x000011a2       0x32 /usr/lib/gcc/arm-none-eabi/12.2.1/../../../arm-none-eabi/lib/thumb/v8-m.main/nofp/libc_nano.a(lib_a-nano-msizer.o)
 .ARM.attributes
                0x000011d4       0x32 /usr/lib/gcc/arm-none-eabi/12.2.1/../../../arm-none-eabi/lib/thumb/v8-m.main/nofp/libc_nano.a(lib_a-readr.o)
 .ARM.attributes
                0x00001206       0x32 /usr/lib/gcc/arm-none-eabi/12.2.1/../../../arm-none-eabi/lib/thumb/v8-m.main/nofp/libc_nano.a(lib_a-reent.o)
 .ARM.attributes
                0x00001238       0x32 /usr/lib/gcc/arm-none-eabi/12.2.1/../../../arm-none-eabi/lib/thumb/v8-m.main/nofp/libnosys.a(close.o)
 .ARM.attributes
                0x0000126a       0x32 /usr/lib/gcc/arm-none-eabi/12.2.1/../../../arm-none-eabi/lib/thumb/v8-m.main/nofp/libnosys.a(fstat.o)
 .ARM.attributes
                0x0000129c       0x32 /usr/lib/gcc/arm-none-eabi/12.2.1/../../../arm-none-eabi/lib/thumb/v8-m.main/nofp/libnosys.a(getpid.o)
 .ARM.attributes
                0x000012ce       0x32 /usr/lib/gcc/arm-none-eabi/12.2.1/../../../arm-none-eabi/lib/thumb/v8-m.main/nofp/libnosys.a(isatty.o)
 .ARM.attributes
                0x00001300       0x32 /usr/lib/gcc/arm-none-eabi/12.2.1/../../../arm-none-eabi/lib/thumb/v8-m.main/nofp/libnosys.a(kill.o)
 .ARM.attributes
                0x00001332       0x32 /usr/lib/gcc/arm-none-eabi/12.2.1/../../../arm-none-eabi/lib/thumb/v8-m.main/nofp/libnosys.a(lseek.o)
 .ARM.attributes
                0x00001364       0x32 /usr/lib/gcc/arm-none-eabi/12.2.1/../../../arm-none-eabi/lib/thumb/v8-m.main/nofp/libnosys.a(read.o)
 .ARM.attributes
                0x00001396       0x32 /usr/lib/gcc/arm-none-eabi/12.2.1/../../../arm-none-eabi/lib/thumb/v8-m.main/nofp/libnosys.a(write.o)
 .ARM.attributes
                0x000013c8       0x32 /usr/lib/gcc/arm-none-eabi/12.2.1/../../../arm-none-eabi/lib/thumb/v8-m.main/nofp/libnosys.a(_exit.o)
 .ARM.attributes
                0x000013fa       0x22 /usr/lib/gcc/arm-none-eabi/12.2.1/thumb/v8-m.main/nofp/libgcc.a(_arm_addsubdf3.o)
 .ARM.attributes
                0x0000141c       0x22 /usr/lib/gcc/arm-none-eabi/12.2.1/thumb/v8-m.main/nofp/libgcc.a(_arm_cmpdf2.o)
 .ARM.attributes
                0x0000143e       0x32 /usr/lib/gcc/arm-none-eabi/12.2.1/thumb/v8-m.main/nofp/libgcc.a(_fixdfdi.o)
 .ARM.attributes
                0x00001470       0x32 /usr/lib/gcc/arm-none-eabi/12.2.1/thumb/v8-m.main/nofp/libgcc.a(_fixunsdfdi.o)
 .ARM.attributes
                0x000014a2       0x22 /usr/lib/gcc/arm-none-eabi/12.2.1/thumb/v8-m.main/nofp/libgcc.a(_arm_muldf3.o)
 .ARM.attributes
                0x000014c4       0x22 /usr/lib/gcc/arm-none-eabi/12.2.1/thumb/v8-m.main/nofp/libgcc.a(_arm_fixunsdfsi.o)

.debug_frame    0x00000000     0x3bc0
 .debug_frame   0x00000000       0x40 ./src/MainTask_entry.o
 .debug_frame   0x00000040       0x34 ./src/blinky_thread_entry.o
 .debug_frame   0x00000074       0x20 ./src/hal_entry.o
 .debug_frame   0x00000094       0x78 ./src/mbed_printf_implementation.o
 .debug_frame   0x0000010c       0xe4 ./src/platform_info.o
 .debug_frame   0x000001f0       0xac ./src/rpmsg_demo.o
 .debug_frame   0x0000029c       0x38 ./src/rsc_table.o
 .debug_frame   0x000002d4       0xe0 ./src/rzg2_rproc.o
 .debug_frame   0x000003b4      0x154 ./src/serial.o
 .debug_frame   0x00000508       0x40 ./src/sys_init.o
 .debug_frame   0x00000548       0x58 ./rzg_gen/MainTask.o
 .debug_frame   0x000005a0       0x58 ./rzg_gen/blinky_thread.o
 .debug_frame   0x000005f8       0x20 ./rzg_gen/common_data.o
 .debug_frame   0x00000618       0x64 ./rzg_gen/hal_data.o
 .debug_frame   0x0000067c       0x8c ./rzg_gen/main.o
 .debug_frame   0x00000708       0x68 ./rzg/linaro/open-amp/lib/virtio/virtio.o
 .debug_frame   0x00000770      0x188 ./rzg/linaro/open-amp/lib/virtio/virtqueue.o
 .debug_frame   0x000008f8       0xf0 ./rzg/linaro/open-amp/lib/rpmsg/rpmsg.o
 .debug_frame   0x000009e8      0x14c ./rzg/linaro/open-amp/lib/rpmsg/rpmsg_virtio.o
 .debug_frame   0x00000b34      0x320 ./rzg/linaro/open-amp/lib/remoteproc/remoteproc.o
 .debug_frame   0x00000e54      0x1e8 ./rzg/linaro/open-amp/lib/remoteproc/remoteproc_virtio.o
 .debug_frame   0x0000103c       0xd0 ./rzg/linaro/open-amp/lib/remoteproc/rsc_table_parser.o
 .debug_frame   0x0000110c       0x70 ./rzg/linaro/libmetal/lib/system/freertos/rzg2/sys.o
 .debug_frame   0x0000117c       0x28 ./rzg/linaro/libmetal/lib/system/freertos/device.o
 .debug_frame   0x000011a4       0x38 ./rzg/linaro/libmetal/lib/system/freertos/init.o
 .debug_frame   0x000011dc       0x30 ./rzg/linaro/libmetal/lib/system/freertos/io.o
 .debug_frame   0x0000120c       0xd8 ./rzg/linaro/libmetal/lib/system/freertos/irq.o
 .debug_frame   0x000012e4      0x154 ./rzg/linaro/libmetal/lib/device.o
 .debug_frame   0x00001438       0x50 ./rzg/linaro/libmetal/lib/init.o
 .debug_frame   0x00001488       0xc8 ./rzg/linaro/libmetal/lib/io.o
 .debug_frame   0x00001550       0x70 ./rzg/linaro/libmetal/lib/log.o
 .debug_frame   0x000015c0      0x1d4 ./rzg/fsp/src/rm_freertos_port/port.o
 .debug_frame   0x00001794       0xc0 ./rzg/fsp/src/rm_freertos_port/portasm.o
 .debug_frame   0x00001854      0x1d0 ./rzg/fsp/src/r_scif_uart/r_scif_uart.o
 .debug_frame   0x00001a24       0xc0 ./rzg/fsp/src/r_mhu_ns/r_mhu_ns.o
 .debug_frame   0x00001ae4      0x20c ./rzg/fsp/src/r_ioport/r_ioport.o
 .debug_frame   0x00001cf0      0x130 ./rzg/fsp/src/r_gtm/r_gtm.o
 .debug_frame   0x00001e20       0x68 ./rzg/fsp/src/bsp/mcu/all/bsp_clocks.o
 .debug_frame   0x00001e88       0x40 ./rzg/fsp/src/bsp/mcu/all/bsp_common.o
 .debug_frame   0x00001ec8       0x20 ./rzg/fsp/src/bsp/mcu/all/bsp_irq.o
 .debug_frame   0x00001ee8       0x2c ./rzg/fsp/src/bsp/mcu/all/bsp_irqs.o
 .debug_frame   0x00001f14       0x28 ./rzg/fsp/src/bsp/mcu/all/bsp_sbrk.o
 .debug_frame   0x00001f3c       0x48 ./rzg/fsp/src/bsp/mcu/all/bsp_security.o
 .debug_frame   0x00001f84       0x48 ./rzg/fsp/src/bsp/cmsis/Device/RENESAS/Source/startup.o
 .debug_frame   0x00001fcc       0x58 ./rzg/fsp/src/bsp/cmsis/Device/RENESAS/Source/startups.o
 .debug_frame   0x00002024       0x44 ./rzg/fsp/src/bsp/cmsis/Device/RENESAS/Source/system.o
 .debug_frame   0x00002068       0x3c ./rzg/fsp/src/bsp/cmsis/Device/RENESAS/Source/systems.o
 .debug_frame   0x000020a4       0x20 ./rzg/board/rzg2l_smarc/board_init.o
 .debug_frame   0x000020c4       0xdc ./rzg/aws/amazon-freertos/freertos_kernel/portable/MemMang/heap_4.o
 .debug_frame   0x000021a0       0x88 ./rzg/aws/amazon-freertos/freertos_kernel/list.o
 .debug_frame   0x00002228      0x338 ./rzg/aws/amazon-freertos/freertos_kernel/queue.o
 .debug_frame   0x00002560      0x5d0 ./rzg/aws/amazon-freertos/freertos_kernel/tasks.o
 .debug_frame   0x00002b30      0x244 ./rzg/aws/amazon-freertos/freertos_kernel/timers.o
 .debug_frame   0x00002d74       0x40 /usr/lib/gcc/arm-none-eabi/12.2.1/../../../arm-none-eabi/lib/thumb/v8-m.main/nofp/libc_nano.a(lib_a-assert.o)
 .debug_frame   0x00002db4       0x20 /usr/lib/gcc/arm-none-eabi/12.2.1/../../../arm-none-eabi/lib/thumb/v8-m.main/nofp/libc_nano.a(lib_a-errno.o)
 .debug_frame   0x00002dd4       0x70 /usr/lib/gcc/arm-none-eabi/12.2.1/../../../arm-none-eabi/lib/thumb/v8-m.main/nofp/libc_nano.a(lib_a-fprintf.o)
 .debug_frame   0x00002e44       0x2c /usr/lib/gcc/arm-none-eabi/12.2.1/../../../arm-none-eabi/lib/thumb/v8-m.main/nofp/libc_nano.a(lib_a-memset.o)
 .debug_frame   0x00002e70       0xac /usr/lib/gcc/arm-none-eabi/12.2.1/../../../arm-none-eabi/lib/thumb/v8-m.main/nofp/libc_nano.a(lib_a-nano-vfprintf.o)
 .debug_frame   0x00002f1c       0x68 /usr/lib/gcc/arm-none-eabi/12.2.1/../../../arm-none-eabi/lib/thumb/v8-m.main/nofp/libc_nano.a(lib_a-nano-vfprintf_i.o)
 .debug_frame   0x00002f84       0x34 /usr/lib/gcc/arm-none-eabi/12.2.1/../../../arm-none-eabi/lib/thumb/v8-m.main/nofp/libc_nano.a(lib_a-strcmp.o)
 .debug_frame   0x00002fb8       0x30 /usr/lib/gcc/arm-none-eabi/12.2.1/../../../arm-none-eabi/lib/thumb/v8-m.main/nofp/libc_nano.a(lib_a-strncmp.o)
 .debug_frame   0x00002fe8       0x2c /usr/lib/gcc/arm-none-eabi/12.2.1/../../../arm-none-eabi/lib/thumb/v8-m.main/nofp/libc_nano.a(lib_a-strncpy.o)
 .debug_frame   0x00003014       0x40 /usr/lib/gcc/arm-none-eabi/12.2.1/../../../arm-none-eabi/lib/thumb/v8-m.main/nofp/libc_nano.a(lib_a-wbuf.o)
 .debug_frame   0x00003054       0x2c /usr/lib/gcc/arm-none-eabi/12.2.1/../../../arm-none-eabi/lib/thumb/v8-m.main/nofp/libc_nano.a(lib_a-wsetup.o)
 .debug_frame   0x00003080       0x28 /usr/lib/gcc/arm-none-eabi/12.2.1/../../../arm-none-eabi/lib/thumb/v8-m.main/nofp/libc_nano.a(lib_a-abort.o)
 .debug_frame   0x000030a8       0x88 /usr/lib/gcc/arm-none-eabi/12.2.1/../../../arm-none-eabi/lib/thumb/v8-m.main/nofp/libc_nano.a(lib_a-fflush.o)
 .debug_frame   0x00003130      0x124 /usr/lib/gcc/arm-none-eabi/12.2.1/../../../arm-none-eabi/lib/thumb/v8-m.main/nofp/libc_nano.a(lib_a-findfp.o)
 .debug_frame   0x00003254       0x64 /usr/lib/gcc/arm-none-eabi/12.2.1/../../../arm-none-eabi/lib/thumb/v8-m.main/nofp/libc_nano.a(lib_a-fvwrite.o)
 .debug_frame   0x000032b8       0x54 /usr/lib/gcc/arm-none-eabi/12.2.1/../../../arm-none-eabi/lib/thumb/v8-m.main/nofp/libc_nano.a(lib_a-fwalk.o)
 .debug_frame   0x0000330c       0x68 /usr/lib/gcc/arm-none-eabi/12.2.1/../../../arm-none-eabi/lib/thumb/v8-m.main/nofp/libc_nano.a(lib_a-makebuf.o)
 .debug_frame   0x00003374       0x28 /usr/lib/gcc/arm-none-eabi/12.2.1/../../../arm-none-eabi/lib/thumb/v8-m.main/nofp/libc_nano.a(lib_a-memchr-stub.o)
 .debug_frame   0x0000339c       0x40 /usr/lib/gcc/arm-none-eabi/12.2.1/../../../arm-none-eabi/lib/thumb/v8-m.main/nofp/libc_nano.a(lib_a-memmove.o)
 .debug_frame   0x000033dc       0x64 /usr/lib/gcc/arm-none-eabi/12.2.1/../../../arm-none-eabi/lib/thumb/v8-m.main/nofp/libc_nano.a(lib_a-nano-freer.o)
 .debug_frame   0x00003440       0x30 /usr/lib/gcc/arm-none-eabi/12.2.1/../../../arm-none-eabi/lib/thumb/v8-m.main/nofp/libc_nano.a(lib_a-nano-mallocr.o)
 .debug_frame   0x00003470       0x38 /usr/lib/gcc/arm-none-eabi/12.2.1/../../../arm-none-eabi/lib/thumb/v8-m.main/nofp/libc_nano.a(lib_a-nano-reallocr.o)
 .debug_frame   0x000034a8       0x2c /usr/lib/gcc/arm-none-eabi/12.2.1/../../../arm-none-eabi/lib/thumb/v8-m.main/nofp/libc_nano.a(lib_a-sbrkr.o)
 .debug_frame   0x000034d4      0x114 /usr/lib/gcc/arm-none-eabi/12.2.1/../../../arm-none-eabi/lib/thumb/v8-m.main/nofp/libc_nano.a(lib_a-signal.o)
 .debug_frame   0x000035e8       0x3c /usr/lib/gcc/arm-none-eabi/12.2.1/../../../arm-none-eabi/lib/thumb/v8-m.main/nofp/libc_nano.a(lib_a-signalr.o)
 .debug_frame   0x00003624       0x8c /usr/lib/gcc/arm-none-eabi/12.2.1/../../../arm-none-eabi/lib/thumb/v8-m.main/nofp/libc_nano.a(lib_a-stdio.o)
 .debug_frame   0x000036b0       0x2c /usr/lib/gcc/arm-none-eabi/12.2.1/../../../arm-none-eabi/lib/thumb/v8-m.main/nofp/libc_nano.a(lib_a-writer.o)
 .debug_frame   0x000036dc       0x2c /usr/lib/gcc/arm-none-eabi/12.2.1/../../../arm-none-eabi/lib/thumb/v8-m.main/nofp/libc_nano.a(lib_a-closer.o)
 .debug_frame   0x00003708       0x2c /usr/lib/gcc/arm-none-eabi/12.2.1/../../../arm-none-eabi/lib/thumb/v8-m.main/nofp/libc_nano.a(lib_a-fstatr.o)
 .debug_frame   0x00003734       0x2c /usr/lib/gcc/arm-none-eabi/12.2.1/../../../arm-none-eabi/lib/thumb/v8-m.main/nofp/libc_nano.a(lib_a-isattyr.o)
 .debug_frame   0x00003760       0x2c /usr/lib/gcc/arm-none-eabi/12.2.1/../../../arm-none-eabi/lib/thumb/v8-m.main/nofp/libc_nano.a(lib_a-lseekr.o)
 .debug_frame   0x0000378c       0x30 /usr/lib/gcc/arm-none-eabi/12.2.1/../../../arm-none-eabi/lib/thumb/v8-m.main/nofp/libc_nano.a(lib_a-mlock.o)
 .debug_frame   0x000037bc       0x20 /usr/lib/gcc/arm-none-eabi/12.2.1/../../../arm-none-eabi/lib/thumb/v8-m.main/nofp/libc_nano.a(lib_a-nano-msizer.o)
 .debug_frame   0x000037dc       0x2c /usr/lib/gcc/arm-none-eabi/12.2.1/../../../arm-none-eabi/lib/thumb/v8-m.main/nofp/libc_nano.a(lib_a-readr.o)
 .debug_frame   0x00003808       0x70 /usr/lib/gcc/arm-none-eabi/12.2.1/../../../arm-none-eabi/lib/thumb/v8-m.main/nofp/libc_nano.a(lib_a-reent.o)
 .debug_frame   0x00003878       0x20 /usr/lib/gcc/arm-none-eabi/12.2.1/../../../arm-none-eabi/lib/thumb/v8-m.main/nofp/libnosys.a(close.o)
 .debug_frame   0x00003898       0x20 /usr/lib/gcc/arm-none-eabi/12.2.1/../../../arm-none-eabi/lib/thumb/v8-m.main/nofp/libnosys.a(fstat.o)
 .debug_frame   0x000038b8       0x20 /usr/lib/gcc/arm-none-eabi/12.2.1/../../../arm-none-eabi/lib/thumb/v8-m.main/nofp/libnosys.a(getpid.o)
 .debug_frame   0x000038d8       0x20 /usr/lib/gcc/arm-none-eabi/12.2.1/../../../arm-none-eabi/lib/thumb/v8-m.main/nofp/libnosys.a(isatty.o)
 .debug_frame   0x000038f8       0x20 /usr/lib/gcc/arm-none-eabi/12.2.1/../../../arm-none-eabi/lib/thumb/v8-m.main/nofp/libnosys.a(kill.o)
 .debug_frame   0x00003918       0x20 /usr/lib/gcc/arm-none-eabi/12.2.1/../../../arm-none-eabi/lib/thumb/v8-m.main/nofp/libnosys.a(lseek.o)
 .debug_frame   0x00003938       0x20 /usr/lib/gcc/arm-none-eabi/12.2.1/../../../arm-none-eabi/lib/thumb/v8-m.main/nofp/libnosys.a(read.o)
 .debug_frame   0x00003958       0x20 /usr/lib/gcc/arm-none-eabi/12.2.1/../../../arm-none-eabi/lib/thumb/v8-m.main/nofp/libnosys.a(write.o)
 .debug_frame   0x00003978       0x20 /usr/lib/gcc/arm-none-eabi/12.2.1/../../../arm-none-eabi/lib/thumb/v8-m.main/nofp/libnosys.a(_exit.o)
 .debug_frame   0x00003998       0xac /usr/lib/gcc/arm-none-eabi/12.2.1/thumb/v8-m.main/nofp/libgcc.a(_arm_addsubdf3.o)
 .debug_frame   0x00003a44       0xc4 /usr/lib/gcc/arm-none-eabi/12.2.1/thumb/v8-m.main/nofp/libgcc.a(_arm_cmpdf2.o)
 .debug_frame   0x00003b08       0x38 /usr/lib/gcc/arm-none-eabi/12.2.1/thumb/v8-m.main/nofp/libgcc.a(_fixdfdi.o)
 .debug_frame   0x00003b40       0x2c /usr/lib/gcc/arm-none-eabi/12.2.1/thumb/v8-m.main/nofp/libgcc.a(_fixunsdfdi.o)
 .debug_frame   0x00003b6c       0x30 /usr/lib/gcc/arm-none-eabi/12.2.1/thumb/v8-m.main/nofp/libgcc.a(_arm_muldf3.o)
 .debug_frame   0x00003b9c       0x24 /usr/lib/gcc/arm-none-eabi/12.2.1/thumb/v8-m.main/nofp/libgcc.a(_arm_fixunsdfsi.o)

.stab           0x00000000       0xcc
 .stab          0x00000000       0x24 /usr/lib/gcc/arm-none-eabi/12.2.1/../../../arm-none-eabi/lib/thumb/v8-m.main/nofp/libnosys.a(close.o)
 .stab          0x00000024       0x18 /usr/lib/gcc/arm-none-eabi/12.2.1/../../../arm-none-eabi/lib/thumb/v8-m.main/nofp/libnosys.a(fstat.o)
                                 0x24 (size before relaxing)
 .stab          0x0000003c       0x18 /usr/lib/gcc/arm-none-eabi/12.2.1/../../../arm-none-eabi/lib/thumb/v8-m.main/nofp/libnosys.a(getpid.o)
                                 0x24 (size before relaxing)
 .stab          0x00000054       0x18 /usr/lib/gcc/arm-none-eabi/12.2.1/../../../arm-none-eabi/lib/thumb/v8-m.main/nofp/libnosys.a(isatty.o)
                                 0x24 (size before relaxing)
 .stab          0x0000006c       0x18 /usr/lib/gcc/arm-none-eabi/12.2.1/../../../arm-none-eabi/lib/thumb/v8-m.main/nofp/libnosys.a(kill.o)
                                 0x24 (size before relaxing)
 .stab          0x00000084       0x18 /usr/lib/gcc/arm-none-eabi/12.2.1/../../../arm-none-eabi/lib/thumb/v8-m.main/nofp/libnosys.a(lseek.o)
                                 0x24 (size before relaxing)
 .stab          0x0000009c       0x18 /usr/lib/gcc/arm-none-eabi/12.2.1/../../../arm-none-eabi/lib/thumb/v8-m.main/nofp/libnosys.a(read.o)
                                 0x24 (size before relaxing)
 .stab          0x000000b4       0x18 /usr/lib/gcc/arm-none-eabi/12.2.1/../../../arm-none-eabi/lib/thumb/v8-m.main/nofp/libnosys.a(write.o)
                                 0x24 (size before relaxing)

.stabstr        0x00000000      0x1b9
 .stabstr       0x00000000      0x1b9 /usr/lib/gcc/arm-none-eabi/12.2.1/../../../arm-none-eabi/lib/thumb/v8-m.main/nofp/libnosys.a(close.o)

.debug_line_str
                0x00000000       0x9d
 .debug_line_str
                0x00000000       0x9d /usr/lib/gcc/arm-none-eabi/12.2.1/thumb/v8-m.main/nofp/libgcc.a(_arm_addsubdf3.o)
 .debug_line_str
                0x0000009d       0x9d /usr/lib/gcc/arm-none-eabi/12.2.1/thumb/v8-m.main/nofp/libgcc.a(_arm_cmpdf2.o)
 .debug_line_str
                0x0000009d       0x9d /usr/lib/gcc/arm-none-eabi/12.2.1/thumb/v8-m.main/nofp/libgcc.a(_arm_muldf3.o)
 .debug_line_str
                0x0000009d       0x9d /usr/lib/gcc/arm-none-eabi/12.2.1/thumb/v8-m.main/nofp/libgcc.a(_arm_fixunsdfsi.o)

.debug_loclists
                0x00000000       0x9f
 .debug_loclists
                0x00000000       0x25 /usr/lib/gcc/arm-none-eabi/12.2.1/thumb/v8-m.main/nofp/libgcc.a(_fixdfdi.o)
 .debug_loclists
                0x00000025       0x7a /usr/lib/gcc/arm-none-eabi/12.2.1/thumb/v8-m.main/nofp/libgcc.a(_fixunsdfdi.o)
